BL51 BANKED LINKER/LOCATER V6.22.4.0                                                    04/07/2024  16:27:45  PAGE 1


BL51 BANKED LINKER/LOCATER V6.22.4.0, INVOKED BY:
D:\KEILC51\C51\C51\BIN\BL51.EXE .\Objects\ctrl.obj, .\Objects\iic.obj, .\Objects\main.obj, .\Objects\time.obj, .\Objects
>> \led8.obj, .\Objects\key.obj TO .\Objects\S9 PRINT (.\Listings\S9.m51) RAMSIZE (256) DISABLEWARNING (16)


MEMORY MODEL: SMALL


INPUT MODULES INCLUDED:
  .\Objects\ctrl.obj (CTRL)
  .\Objects\iic.obj (IIC)
  .\Objects\main.obj (MAIN)
  .\Objects\time.obj (TIME)
  .\Objects\led8.obj (LED8)
  .\Objects\key.obj (KEY)
  D:\KEILC51\C51\C51\LIB\C51S.LIB (?C_STARTUP)
  D:\KEILC51\C51\C51\LIB\C51S.LIB (?C?IMUL)
  D:\KEILC51\C51\C51\LIB\C51S.LIB (?C?ILDIX)
  D:\KEILC51\C51\C51\LIB\C51S.LIB (?C?CCASE)
  D:\KEILC51\C51\C51\LIB\C51S.LIB (PRINTF)
  D:\KEILC51\C51\C51\LIB\C51S.LIB (?C_INIT)
  D:\KEILC51\C51\C51\LIB\C51S.LIB (?C?CLDPTR)
  D:\KEILC51\C51\C51\LIB\C51S.LIB (?C?CLDOPTR)
  D:\KEILC51\C51\C51\LIB\C51S.LIB (?C?CSTPTR)
  D:\KEILC51\C51\C51\LIB\C51S.LIB (?C?PLDIIDATA)
  D:\KEILC51\C51\C51\LIB\C51S.LIB (PUTCHAR)


LINK MAP OF MODULE:  .\Objects\S9 (CTRL)


            TYPE    BASE      LENGTH    RELOCATION   SEGMENT NAME
            -----------------------------------------------------

            * * * * * * *   D A T A   M E M O R Y   * * * * * * *
            REG     0000H     0008H     ABSOLUTE     "REG BANK 0"
            DATA    0008H     0014H     UNIT         _DATA_GROUP_
            DATA    001CH     0002H     UNIT         ?DT?KEY
            DATA    001EH     0001H     UNIT         ?DT?CTRL
                    001FH     0001H                  *** GAP ***
            DATA    0020H     0002H     BIT_ADDR     ?BA?MAIN
            BIT     0022H.0   0001H.1   UNIT         ?BI?TIME
            BIT     0023H.1   0001H.1   UNIT         _BIT_GROUP_
            BIT     0024H.2   0000H.2   UNIT         ?BI?MAIN
                    0024H.4   0000H.4                *** GAP ***
            DATA    0025H     001CH     UNIT         ?DT?LED8
            DATA    0041H     0010H     UNIT         ?DT?MAIN
            DATA    0051H     0006H     UNIT         ?DT?TIME
            IDATA   0057H     0001H     UNIT         ?STACK

            * * * * * * *  X D A T A   M E M O R Y  * * * * * * *
            XDATA   0000H     0010H     UNIT         ?XD?MAIN

            * * * * * * *   C O D E   M E M O R Y   * * * * * * *
            CODE    0000H     0003H     ABSOLUTE     
            CODE    0003H     0018H     UNIT         ?PR?_I2CSENDACK?IIC
            CODE    001BH     0003H     ABSOLUTE     
            CODE    001EH     035CH     UNIT         ?PR?PRINTF?PRINTF
BL51 BANKED LINKER/LOCATER V6.22.4.0                                                  04/07/2024  16:27:45  PAGE 2


            CODE    037AH     01A3H     UNIT         ?PR?KEY_MAINLOOP?MAIN
            CODE    051DH     013DH     UNIT         ?PR?LED_MAINLOOP?MAIN
            CODE    065AH     010FH     UNIT         ?PR?STATE_MAINLOOP?MAIN
            CODE    0769H     010AH     UNIT         ?PR?DISP_TRAN?LED8
            CODE    0873H     00F5H     UNIT         ?PR?E2PROM_INIT?MAIN
            CODE    0968H     00B6H     UNIT         ?C?LIB_CODE
            CODE    0A1EH     008CH     UNIT         ?C_C51STARTUP
            CODE    0AAAH     0067H     UNIT         ?C_INITSEG
            CODE    0B11H     0049H     UNIT         ?PR?TIMFLAG_PROC?TIME
            CODE    0B5AH     0048H     UNIT         ?PR?KEY_PROC?KEY
            CODE    0BA2H     0043H     UNIT         ?PR?LED_PROC?TIME
            CODE    0BE5H     0041H     UNIT         ?PR?PIT1?TIME
            CODE    0C26H     003CH     UNIT         ?PR?DISP_SCAN?LED8
            CODE    0C62H     0030H     UNIT         ?PR?BLINK8_MAINLOOP?MAIN
            CODE    0C92H     002DH     UNIT         ?PR?MAIN_INIT?MAIN
            CODE    0CBFH     002CH     UNIT         ?PR?_I2CSENDBYTE?IIC
            CODE    0CEBH     002BH     UNIT         ?PR?GETKEY22?KEY
            CODE    0D16H     0027H     UNIT         ?PR?PUTCHAR?PUTCHAR
            CODE    0D3DH     0020H     UNIT         ?CO?MAIN
            CODE    0D5DH     001EH     UNIT         ?PR?GETKEYBTN?KEY
            CODE    0D7BH     001DH     UNIT         ?PR?I2CRECEIVEBYTE?IIC
            CODE    0D98H     001DH     UNIT         ?PR?I2CWAITACK?IIC
            CODE    0DB5H     001CH     UNIT         ?PR?I2CSTOP?IIC
            CODE    0DD1H     001BH     UNIT         ?PR?ADC_MAINLOOP?MAIN
            CODE    0DECH     001AH     UNIT         ?PR?_I2C_DELAY?IIC
            CODE    0E06H     0019H     UNIT         ?CO?LED8
            CODE    0E1FH     0017H     UNIT         ?PR?_WRITE_E2PROM?IIC
            CODE    0E36H     0016H     UNIT         ?PR?MAIN?MAIN
            CODE    0E4CH     0015H     UNIT         ?PR?_WRITE_DAC?IIC
            CODE    0E61H     0015H     UNIT         ?PR?_READ_E2PROM?IIC
            CODE    0E76H     0013H     UNIT         ?PR?TIMER1_INIT?TIME
            CODE    0E89H     0012H     UNIT         ?PR?_OFF?CTRL
            CODE    0E9BH     0011H     UNIT         ?PR?_ON?CTRL
            CODE    0EACH     000FH     UNIT         ?PR?I2CSTART?IIC
            CODE    0EBBH     000DH     UNIT         ?PR?_INIT_ADC?IIC
            CODE    0EC8H     000BH     UNIT         ?PR?READ_ADC?IIC
            CODE    0ED3H     000AH     UNIT         ?PR?_GATE?CTRL
            CODE    0EDDH     0009H     UNIT         ?PR?DELAY10MS?MAIN



OVERLAY MAP OF MODULE:   .\Objects\S9 (CTRL)


SEGMENT                             BIT_GROUP          DATA_GROUP 
  +--> CALLED SEGMENT            START    LENGTH     START    LENGTH
--------------------------------------------------------------------
?PR?PIT1?TIME                    -----    -----      -----    -----
  +--> ?PR?DISP_SCAN?LED8
  +--> ?PR?TIMFLAG_PROC?TIME
  +--> ?PR?LED_PROC?TIME

?PR?DISP_SCAN?LED8               -----    -----      -----    -----
  +--> ?PR?_GATE?CTRL

?PR?LED_PROC?TIME                -----    -----      -----    -----
  +--> ?PR?_GATE?CTRL
BL51 BANKED LINKER/LOCATER V6.22.4.0                                                  04/07/2024  16:27:45  PAGE 3



*** NEW ROOT ***************************************************

?C_C51STARTUP                    -----    -----      -----    -----
  +--> ?PR?MAIN?MAIN
  +--> ?C_INITSEG

?PR?MAIN?MAIN                    -----    -----      -----    -----
  +--> ?PR?MAIN_INIT?MAIN
  +--> ?PR?STATE_MAINLOOP?MAIN
  +--> ?PR?KEY_MAINLOOP?MAIN
  +--> ?PR?LED_MAINLOOP?MAIN
  +--> ?PR?BLINK8_MAINLOOP?MAIN
  +--> ?PR?ADC_MAINLOOP?MAIN

?PR?MAIN_INIT?MAIN               -----    -----      -----    -----
  +--> ?PR?_OFF?CTRL
  +--> ?PR?TIMER1_INIT?TIME
  +--> ?PR?_INIT_ADC?IIC
  +--> ?PR?E2PROM_INIT?MAIN

?PR?_OFF?CTRL                    -----    -----      -----    -----
  +--> ?PR?_GATE?CTRL

?PR?_INIT_ADC?IIC                -----    -----      -----    -----
  +--> ?PR?I2CSTART?IIC
  +--> ?PR?I2CWAITACK?IIC
  +--> ?PR?I2CSTOP?IIC

?PR?I2CSTART?IIC                 -----    -----      -----    -----
  +--> ?PR?_I2C_DELAY?IIC

?PR?I2CWAITACK?IIC               -----    -----      -----    -----
  +--> ?PR?_I2CSENDBYTE?IIC
  +--> ?PR?_I2C_DELAY?IIC

?PR?_I2CSENDBYTE?IIC             -----    -----      -----    -----
  +--> ?PR?_I2C_DELAY?IIC

?PR?I2CSTOP?IIC                  -----    -----      -----    -----
  +--> ?PR?_I2CSENDBYTE?IIC
  +--> ?PR?I2CWAITACK?IIC
  +--> ?PR?I2CRECEIVEBYTE?IIC
  +--> ?PR?_I2CSENDACK?IIC
  +--> ?PR?_I2C_DELAY?IIC

?PR?I2CRECEIVEBYTE?IIC           -----    -----      -----    -----
  +--> ?PR?_I2C_DELAY?IIC

?PR?_I2CSENDACK?IIC              -----    -----      -----    -----
  +--> ?PR?_I2C_DELAY?IIC

?PR?E2PROM_INIT?MAIN             -----    -----      -----    -----
  +--> ?PR?_READ_E2PROM?IIC
  +--> ?PR?_WRITE_E2PROM?IIC
  +--> ?PR?DELAY10MS?MAIN

BL51 BANKED LINKER/LOCATER V6.22.4.0                                                  04/07/2024  16:27:45  PAGE 4


?PR?_READ_E2PROM?IIC             -----    -----      -----    -----
  +--> ?PR?I2CSTART?IIC
  +--> ?PR?I2CWAITACK?IIC
  +--> ?PR?I2CSTOP?IIC

?PR?_WRITE_E2PROM?IIC            -----    -----      -----    -----
  +--> ?PR?I2CSTART?IIC
  +--> ?PR?_I2CSENDBYTE?IIC
  +--> ?PR?I2CWAITACK?IIC
  +--> ?PR?I2CSTOP?IIC

?PR?STATE_MAINLOOP?MAIN          -----    -----      -----    -----
  +--> ?CO?MAIN
  +--> ?PR?PRINTF?PRINTF
  +--> ?PR?DISP_TRAN?LED8

?PR?PRINTF?PRINTF                0023H.1  0001H.1    0008H    0014H
  +--> ?PR?PUTCHAR?PUTCHAR

?PR?DISP_TRAN?LED8               -----    -----      0008H    0003H
  +--> ?CO?LED8

?PR?KEY_MAINLOOP?MAIN            -----    -----      -----    -----
  +--> ?PR?KEY_PROC?KEY
  +--> ?PR?_WRITE_E2PROM?IIC

?PR?KEY_PROC?KEY                 -----    -----      -----    -----
  +--> ?PR?GETKEY22?KEY

?PR?ADC_MAINLOOP?MAIN            -----    -----      -----    -----
  +--> ?PR?READ_ADC?IIC

?PR?READ_ADC?IIC                 -----    -----      -----    -----
  +--> ?PR?I2CSTART?IIC
  +--> ?PR?I2CSTOP?IIC



SYMBOL TABLE OF MODULE:  .\Objects\S9 (CTRL)

  VALUE           TYPE          NAME
  ----------------------------------

  -------         MODULE        CTRL
  C:0000H         SYMBOL        _ICE_DUMMY_
  D:0080H         PUBLIC        P0
  D:0090H         PUBLIC        P1
  D:00A0H         PUBLIC        P2
  D:00B0H         PUBLIC        P3
  D:00C0H         PUBLIC        P4
  D:00C8H         PUBLIC        P5
  D:00E8H         PUBLIC        P6
  D:00F8H         PUBLIC        P7
  D:00A8H         PUBLIC        IE
  D:00B8H         PUBLIC        IP
  C:0ED3H         PUBLIC        _gate
  D:00D8H         PUBLIC        CCON
BL51 BANKED LINKER/LOCATER V6.22.4.0                                                  04/07/2024  16:27:45  PAGE 5


  D:0098H         PUBLIC        SCON
  D:0088H         PUBLIC        TCON
  C:0E89H         PUBLIC        _off
  C:0E9BH         PUBLIC        _on
  D:001EH         PUBLIC        ctr_dat
  D:00D0H         PUBLIC        PSW
  -------         PROC          _GATE
  D:0007H         SYMBOL        a
  C:0ED3H         LINE#         4
  C:0ED3H         LINE#         5
  C:0ED3H         LINE#         6
  C:0ED6H         LINE#         7
  C:0ED9H         LINE#         8
  C:0EDCH         LINE#         9
  -------         ENDPROC       _GATE
  -------         PROC          _ON
  D:0007H         SYMBOL        a
  C:0E9BH         LINE#         11
  C:0E9BH         LINE#         12
  C:0E9BH         LINE#         13
  C:0EA0H         LINE#         15
  C:0EA3H         LINE#         16
  C:0EA6H         LINE#         17
  C:0EABH         LINE#         18
  -------         ENDPROC       _ON
  -------         PROC          _OFF
  D:0007H         SYMBOL        a
  C:0E89H         LINE#         19
  C:0E89H         LINE#         20
  C:0E89H         LINE#         21
  C:0E8EH         LINE#         23
  C:0E92H         LINE#         24
  C:0E95H         LINE#         25
  C:0E9AH         LINE#         26
  -------         ENDPROC       _OFF
  -------         ENDMOD        CTRL

  -------         MODULE        IIC
  C:0000H         SYMBOL        _ICE_DUMMY_
  D:0080H         PUBLIC        P0
  D:0090H         PUBLIC        P1
  D:00A0H         PUBLIC        P2
  D:00B0H         PUBLIC        P3
  D:00C0H         PUBLIC        P4
  D:00C8H         PUBLIC        P5
  D:00E8H         PUBLIC        P6
  D:00F8H         PUBLIC        P7
  D:00A8H         PUBLIC        IE
  C:0DF0H         SYMBOL        _I2C_Delay
  D:00B8H         PUBLIC        IP
  C:0D7BH         PUBLIC        I2CReceiveByte
  D:00D8H         PUBLIC        CCON
  C:0EC8H         PUBLIC        read_adc
  D:0098H         PUBLIC        SCON
  D:0088H         PUBLIC        TCON
  C:0E4CH         PUBLIC        _write_dac
  B:00A0H.1       PUBLIC        sda
BL51 BANKED LINKER/LOCATER V6.22.4.0                                                  04/07/2024  16:27:45  PAGE 6


  C:0EBBH         PUBLIC        _init_adc
  B:00A0H.0       PUBLIC        scl
  C:0EACH         PUBLIC        I2CStart
  C:0E61H         PUBLIC        _read_e2prom
  C:0003H         PUBLIC        _I2CSendAck
  C:0CBFH         PUBLIC        _I2CSendByte
  C:0DA3H         PUBLIC        I2CWaitAck
  C:0DC5H         PUBLIC        I2CStop
  C:0E1FH         PUBLIC        _write_e2prom
  D:00D0H         PUBLIC        PSW
  C:0DECH         SYMBOL        L?0028
  -------         PROC          L?0027
  -------         ENDPROC       L?0027
  C:0DECH         SYMBOL        L?0028
  -------         PROC          _I2C_DELAY
  D:0007H         SYMBOL        n
  C:0DF0H         LINE#         10
  C:0DF0H         LINE#         11
  C:0DF0H         LINE#         13
  C:0DF0H         LINE#         14
  C:0DF5H         LINE#         15
  C:0DFAH         LINE#         16
  C:0DFFH         LINE#         17
  C:0DFFH         LINE#         18
  C:0E05H         LINE#         19
  -------         ENDPROC       _I2C_DELAY
  -------         PROC          I2CSTART
  C:0EACH         LINE#         22
  C:0EACH         LINE#         23
  C:0EACH         LINE#         24
  C:0EAEH         LINE#         25
  C:0EAEH         LINE#         26
  C:0EB1H         LINE#         27
  C:0EB3H         LINE#         28
  C:0EB8H         LINE#         29
  C:0EBAH         LINE#         30
  -------         ENDPROC       I2CSTART
  -------         PROC          L?0029
  -------         ENDPROC       L?0029
  -------         PROC          I2CSTOP
  C:0DC5H         LINE#         33
  C:0DC5H         LINE#         34
  C:0DC5H         LINE#         35
  C:0DC7H         LINE#         36
  C:0DC7H         LINE#         37
  C:0DCAH         LINE#         38
  C:0DCCH         LINE#         39
  -------         ENDPROC       I2CSTOP
  -------         PROC          _I2CSENDBYTE
  D:0005H         SYMBOL        byt
  -------         DO            
  D:0004H         SYMBOL        i
  -------         ENDDO         
  C:0CBFH         LINE#         43
  C:0CC1H         LINE#         44
  C:0CC1H         LINE#         47
  C:0CC3H         LINE#         48
BL51 BANKED LINKER/LOCATER V6.22.4.0                                                  04/07/2024  16:27:45  PAGE 7


  C:0CC3H         LINE#         49
  C:0CC5H         LINE#         50
  C:0CCAH         LINE#         51
  C:0CCEH         LINE#         52
  C:0CCEH         LINE#         53
  C:0CD0H         LINE#         54
  C:0CD2H         LINE#         56
  C:0CD2H         LINE#         57
  C:0CD4H         LINE#         58
  C:0CD4H         LINE#         59
  C:0CD9H         LINE#         60
  C:0CDBH         LINE#         61
  C:0CDFH         LINE#         62
  C:0CE4H         LINE#         63
  C:0CE8H         LINE#         64
  C:0CEAH         LINE#         65
  -------         ENDPROC       _I2CSENDBYTE
  -------         PROC          I2CRECEIVEBYTE
  -------         DO            
  D:0005H         SYMBOL        da
  D:0004H         SYMBOL        i
  -------         ENDDO         
  C:0D7BH         LINE#         68
  C:0D7BH         LINE#         69
  C:0D7BH         LINE#         72
  C:0D7DH         LINE#         73
  C:0D7DH         LINE#         74
  C:0D7DH         LINE#         75
  C:0D80H         LINE#         76
  C:0D84H         LINE#         77
  C:0D87H         LINE#         78
  C:0D8AH         LINE#         79
  C:0D8CH         LINE#         80
  C:0D91H         LINE#         81
  C:0D95H         LINE#         82
  C:0D97H         LINE#         83
  -------         ENDPROC       I2CRECEIVEBYTE
  C:0D98H         SYMBOL        L?0026
  -------         PROC          L?0025
  -------         ENDPROC       L?0025
  C:0D98H         SYMBOL        L?0026
  -------         PROC          I2CWAITACK
  -------         DO            
  D:0005H         SYMBOL        ackbit
  -------         ENDDO         
  C:0DA3H         LINE#         86
  C:0DA3H         LINE#         87
  C:0DA3H         LINE#         90
  C:0DA3H         LINE#         91
  C:0DA6H         LINE#         92
  C:0DABH         LINE#         93
  C:0DADH         LINE#         94
  C:0DB2H         LINE#         96
  C:0DB4H         LINE#         97
  -------         ENDPROC       I2CWAITACK
  -------         PROC          _I2CSENDACK
  D:0007H         SYMBOL        ackbit
BL51 BANKED LINKER/LOCATER V6.22.4.0                                                  04/07/2024  16:27:45  PAGE 8


  C:0003H         LINE#         100
  C:0003H         LINE#         101
  C:0003H         LINE#         102
  C:0005H         LINE#         103
  C:000AH         LINE#         104
  C:000FH         LINE#         105
  C:000FH         LINE#         106
  C:0012H         LINE#         107
  C:0014H         LINE#         108
  C:0016H         LINE#         109
  -------         ENDPROC       _I2CSENDACK
  -------         PROC          _INIT_ADC
  D:0003H         SYMBOL        add
  C:0EBBH         LINE#         113
  C:0EBDH         LINE#         114
  C:0EBDH         LINE#         115
  C:0EC0H         LINE#         116
  C:0EC2H         LINE#         117
  C:0EC2H         LINE#         118
  C:0EC2H         LINE#         119
  C:0EC5H         LINE#         120
  -------         ENDPROC       _INIT_ADC
  -------         PROC          READ_ADC
  -------         DO            
  D:0005H         SYMBOL        ad_dat
  -------         ENDDO         
  C:0EC8H         LINE#         123
  C:0EC8H         LINE#         124
  C:0EC8H         LINE#         127
  C:0ECBH         LINE#         128
  C:0ECDH         LINE#         129
  C:0ECDH         LINE#         130
  C:0ECDH         LINE#         131
  C:0ECDH         LINE#         132
  C:0ED0H         LINE#         134
  C:0ED2H         LINE#         135
  -------         ENDPROC       READ_ADC
  -------         PROC          _WRITE_DAC
  D:0003H         SYMBOL        dat
  C:0E4CH         LINE#         137
  C:0E4EH         LINE#         138
  C:0E4EH         LINE#         139
  C:0E51H         LINE#         140
  C:0E56H         LINE#         141
  C:0E59H         LINE#         142
  C:0E5BH         LINE#         143
  C:0E5BH         LINE#         144
  C:0E5BH         LINE#         145
  C:0E5EH         LINE#         146
  -------         ENDPROC       _WRITE_DAC
  -------         PROC          _WRITE_E2PROM
  D:0002H         SYMBOL        add
  D:0003H         SYMBOL        dat
  C:0E1FH         LINE#         149
  C:0E23H         LINE#         150
  C:0E23H         LINE#         151
  C:0E26H         LINE#         152
BL51 BANKED LINKER/LOCATER V6.22.4.0                                                  04/07/2024  16:27:45  PAGE 9


  C:0E2BH         LINE#         153
  C:0E2EH         LINE#         154
  C:0E30H         LINE#         155
  C:0E30H         LINE#         156
  C:0E30H         LINE#         157
  C:0E33H         LINE#         158
  -------         ENDPROC       _WRITE_E2PROM
  -------         PROC          _READ_E2PROM
  D:0003H         SYMBOL        add
  -------         DO            
  D:0005H         SYMBOL        dat
  -------         ENDDO         
  C:0E61H         LINE#         161
  C:0E63H         LINE#         162
  C:0E63H         LINE#         164
  C:0E66H         LINE#         165
  C:0E68H         LINE#         166
  C:0E68H         LINE#         167
  C:0E68H         LINE#         168
  C:0E6BH         LINE#         170
  C:0E6EH         LINE#         171
  C:0E70H         LINE#         172
  C:0E70H         LINE#         173
  C:0E70H         LINE#         174
  C:0E70H         LINE#         175
  C:0E73H         LINE#         177
  C:0E75H         LINE#         180
  -------         ENDPROC       _READ_E2PROM
  -------         ENDMOD        IIC

  -------         MODULE        MAIN
  C:0000H         SYMBOL        _ICE_DUMMY_
  B:0020H.2       PUBLIC        L3
  B:0020H.3       PUBLIC        L4
  D:0080H         PUBLIC        P0
  B:0020H.4       PUBLIC        L5
  D:0090H         PUBLIC        P1
  B:0020H.5       PUBLIC        L6
  D:00A0H         PUBLIC        P2
  B:0020H.6       PUBLIC        L7
  D:00B0H         PUBLIC        P3
  B:0020H.7       PUBLIC        L8
  D:00C0H         PUBLIC        P4
  D:00C8H         PUBLIC        P5
  B:00A8H.7       PUBLIC        EA
  D:00E8H         PUBLIC        P6
  D:00F8H         PUBLIC        P7
  D:00A8H         PUBLIC        IE
  C:037AH         PUBLIC        key_mainloop
  C:0C62H         PUBLIC        blink8_mainloop
  D:00B8H         PUBLIC        IP
  D:00D8H         PUBLIC        CCON
  C:0E36H         PUBLIC        main
  D:0098H         PUBLIC        SCON
  C:0EDDH         PUBLIC        Delay10ms
  D:0088H         PUBLIC        TCON
  B:0024H.2       PUBLIC        f_s4L
BL51 BANKED LINKER/LOCATER V6.22.4.0                                                  04/07/2024  16:27:45  PAGE 10


  C:0C92H         PUBLIC        main_init
  B:0024H.3       PUBLIC        f_led_t
  D:0020H         PUBLIC        led_dat
  D:0044H         PUBLIC        run_state
  D:0021H         PUBLIC        blink8_dat
  D:0045H         PUBLIC        led1
  D:004DH         PUBLIC        led2
  C:065AH         PUBLIC        state_mainloop
  C:0DD1H         PUBLIC        adc_mainloop
  C:0873H         PUBLIC        e2prom_init
  X:0000H         PUBLIC        x
  D:00D0H         PUBLIC        PSW
  C:051DH         PUBLIC        led_mainloop
  B:0020H.0       PUBLIC        L1
  B:0020H.1       PUBLIC        L2
  -------         PROC          MAIN
  C:0E36H         LINE#         45
  C:0E36H         LINE#         46
  C:0E36H         LINE#         48
  C:0E39H         LINE#         49
  C:0E3BH         LINE#         50
  C:0E3BH         LINE#         51
  C:0E3BH         LINE#         52
  C:0E3EH         LINE#         53
  C:0E41H         LINE#         54
  C:0E44H         LINE#         55
  C:0E47H         LINE#         56
  C:0E4AH         LINE#         57
  -------         ENDPROC       MAIN
  -------         PROC          MAIN_INIT
  C:0C92H         LINE#         60
  C:0C92H         LINE#         61
  C:0C92H         LINE#         62
  C:0C9CH         LINE#         63
  C:0C9FH         LINE#         64
  C:0CA2H         LINE#         65
  C:0CA7H         LINE#         67
  C:0CAAH         LINE#         68
  C:0CADH         LINE#         69
  C:0CB2H         LINE#         70
  C:0CB6H         LINE#         71
  C:0CB9H         LINE#         72
  C:0CBCH         LINE#         73
  C:0CBEH         LINE#         75
  -------         ENDPROC       MAIN_INIT
  -------         PROC          STATE_MAINLOOP
  C:065AH         LINE#         77
  C:065AH         LINE#         78
  C:065AH         LINE#         79
  C:0660H         LINE#         80
  C:0662H         LINE#         81
  C:067CH         LINE#         82
  C:067CH         LINE#         83
  C:067CH         LINE#         84
  C:0685H         LINE#         85
  C:0688H         LINE#         86
  C:0688H         LINE#         87
BL51 BANKED LINKER/LOCATER V6.22.4.0                                                  04/07/2024  16:27:45  PAGE 11


  C:069EH         LINE#         88
  C:069EH         LINE#         89
  C:06BFH         LINE#         90
  C:06E3H         LINE#         91
  C:0707H         LINE#         92
  C:072BH         LINE#         93
  C:072BH         LINE#         94
  C:072BH         LINE#         95
  C:072BH         LINE#         96
  C:074BH         LINE#         97
  C:074DH         LINE#         98
  C:074DH         LINE#         99
  C:0765H         LINE#         100
  C:0765H         LINE#         101
  C:0765H         LINE#         102
  C:0768H         LINE#         103
  -------         ENDPROC       STATE_MAINLOOP
  -------         PROC          KEY_MAINLOOP
  C:037AH         LINE#         105
  C:037AH         LINE#         106
  C:037AH         LINE#         107
  C:0380H         LINE#         108
  C:0382H         LINE#         110
  C:0385H         LINE#         111
  C:038CH         LINE#         113
  C:03ACH         LINE#         114
  C:03ACH         LINE#         115
  C:03ACH         LINE#         116
  C:03B8H         LINE#         117
  C:03B8H         LINE#         118
  C:03B8H         LINE#         119
  C:03C8H         LINE#         120
  C:03CAH         LINE#         121
  C:03CAH         LINE#         122
  C:03EDH         LINE#         123
  C:03F0H         LINE#         124
  C:03F0H         LINE#         125
  C:03F0H         LINE#         126
  C:03F0H         LINE#         127
  C:03FCH         LINE#         128
  C:03FCH         LINE#         129
  C:03FCH         LINE#         130
  C:040FH         LINE#         131
  C:0412H         LINE#         132
  C:0412H         LINE#         133
  C:0435H         LINE#         134
  C:0438H         LINE#         135
  C:0438H         LINE#         136
  C:0438H         LINE#         137
  C:0438H         LINE#         138
  C:0448H         LINE#         139
  C:0448H         LINE#         140
  C:044EH         LINE#         141
  C:0451H         LINE#         142
  C:0457H         LINE#         143
  C:046CH         LINE#         144
  C:046CH         LINE#         145
BL51 BANKED LINKER/LOCATER V6.22.4.0                                                  04/07/2024  16:27:45  PAGE 12


  C:0471H         LINE#         146
  C:0476H         LINE#         147
  C:047BH         LINE#         148
  C:0487H         LINE#         149
  C:0487H         LINE#         150
  C:0487H         LINE#         151
  C:048AH         LINE#         152
  C:048DH         LINE#         153
  C:04A0H         LINE#         154
  C:04A0H         LINE#         155
  C:04B5H         LINE#         156
  C:04CFH         LINE#         157
  C:04E9H         LINE#         158
  C:0508H         LINE#         159
  C:0508H         LINE#         160
  C:0508H         LINE#         161
  C:0508H         LINE#         162
  C:0508H         LINE#         163
  C:0508H         LINE#         164
  C:050EH         LINE#         165
  C:0510H         LINE#         167
  C:0510H         LINE#         168
  C:0516H         LINE#         169
  C:0516H         LINE#         170
  C:0519H         LINE#         171
  C:0519H         LINE#         172
  C:0519H         LINE#         173
  C:0519H         LINE#         174
  C:051CH         LINE#         175
  -------         ENDPROC       KEY_MAINLOOP
  -------         PROC          LED_MAINLOOP
  -------         DO            
  D:0041H         SYMBOL        cnt_t
  D:0043H         SYMBOL        i
  -------         ENDDO         
  C:051DH         LINE#         177
  C:051DH         LINE#         178
  C:051DH         LINE#         182
  C:0523H         LINE#         183
  C:0525H         LINE#         185
  C:053EH         LINE#         186
  C:053EH         LINE#         187
  C:053EH         LINE#         188
  C:055BH         LINE#         189
  C:055BH         LINE#         190
  C:0562H         LINE#         191
  C:0566H         LINE#         192
  C:0566H         LINE#         193
  C:0568H         LINE#         194
  C:0568H         LINE#         195
  C:0585H         LINE#         196
  C:0585H         LINE#         197
  C:058CH         LINE#         198
  C:0590H         LINE#         199
  C:0592H         LINE#         200
  C:0594H         LINE#         201
  C:0594H         LINE#         202
BL51 BANKED LINKER/LOCATER V6.22.4.0                                                  04/07/2024  16:27:45  PAGE 13


  C:05B1H         LINE#         203
  C:05B1H         LINE#         204
  C:05B8H         LINE#         205
  C:05BCH         LINE#         206
  C:05BEH         LINE#         207
  C:05C0H         LINE#         208
  C:05C0H         LINE#         209
  C:05DDH         LINE#         210
  C:05DDH         LINE#         211
  C:05E4H         LINE#         212
  C:05E8H         LINE#         213
  C:05F0H         LINE#         214
  C:05F2H         LINE#         215
  C:05F5H         LINE#         216
  C:05F5H         LINE#         218
  C:05FBH         LINE#         219
  C:05FEH         LINE#         220
  C:05FEH         LINE#         221
  C:0600H         LINE#         222
  C:060FH         LINE#         223
  C:060FH         LINE#         224
  C:060FH         LINE#         225
  C:0618H         LINE#         226
  C:0621H         LINE#         227
  C:0622H         LINE#         228
  C:0622H         LINE#         229
  C:062BH         LINE#         230
  C:0634H         LINE#         231
  C:0635H         LINE#         232
  C:0635H         LINE#         233
  C:063EH         LINE#         234
  C:0647H         LINE#         235
  C:0648H         LINE#         236
  C:0648H         LINE#         237
  C:0651H         LINE#         238
  C:0659H         LINE#         239
  C:0659H         LINE#         240
  C:0659H         LINE#         241
  C:0659H         LINE#         242
  -------         ENDPROC       LED_MAINLOOP
  -------         PROC          BLINK8_MAINLOOP
  -------         DO            
  D:0007H         SYMBOL        i
  D:0006H         SYMBOL        tmp
  -------         ENDDO         
  C:0C62H         LINE#         244
  C:0C62H         LINE#         245
  C:0C62H         LINE#         246
  C:0C65H         LINE#         248
  C:0C68H         LINE#         249
  C:0C6AH         LINE#         251
  C:0C6EH         LINE#         253
  C:0C6EH         LINE#         254
  C:0C6EH         LINE#         255
  C:0C7CH         LINE#         256
  C:0C7EH         LINE#         257
  C:0C87H         LINE#         259
BL51 BANKED LINKER/LOCATER V6.22.4.0                                                  04/07/2024  16:27:45  PAGE 14


  C:0C8DH         LINE#         260
  C:0C91H         LINE#         261
  -------         ENDPROC       BLINK8_MAINLOOP
  -------         PROC          ADC_MAINLOOP
  -------         DO            
  D:0007H         SYMBOL        ad_temp
  -------         ENDDO         
  C:0DD1H         LINE#         263
  C:0DD1H         LINE#         264
  C:0DD1H         LINE#         265
  C:0DD3H         LINE#         266
  C:0DD6H         LINE#         267
  C:0DD8H         LINE#         269
  C:0DDBH         LINE#         270
  C:0DE7H         LINE#         271
  C:0DEBH         LINE#         272
  -------         ENDPROC       ADC_MAINLOOP
  -------         PROC          DELAY10MS
  -------         DO            
  D:0007H         SYMBOL        i
  D:0006H         SYMBOL        j
  -------         ENDDO         
  C:0EDDH         LINE#         274
  C:0EDDH         LINE#         275
  C:0EDDH         LINE#         278
  C:0EDFH         LINE#         279
  C:0EE1H         LINE#         281
  C:0EE1H         LINE#         282
  C:0EE3H         LINE#         283
  C:0EE5H         LINE#         284
  -------         ENDPROC       DELAY10MS
  -------         PROC          E2PROM_INIT
  C:0873H         LINE#         286
  C:0873H         LINE#         287
  C:0873H         LINE#         289
  C:0882H         LINE#         290
  C:0899H         LINE#         291
  C:0899H         LINE#         292
  C:08A0H         LINE#         293
  C:08A3H         LINE#         294
  C:08A3H         LINE#         295
  C:08B0H         LINE#         297
  C:08BFH         LINE#         298
  C:08D6H         LINE#         299
  C:08D6H         LINE#         300
  C:08DDH         LINE#         301
  C:08E0H         LINE#         302
  C:08E0H         LINE#         303
  C:08EDH         LINE#         305
  C:08FCH         LINE#         306
  C:0913H         LINE#         307
  C:0913H         LINE#         308
  C:091AH         LINE#         309
  C:091DH         LINE#         310
  C:091DH         LINE#         311
  C:092AH         LINE#         313
  C:0939H         LINE#         314
BL51 BANKED LINKER/LOCATER V6.22.4.0                                                  04/07/2024  16:27:45  PAGE 15


  C:0950H         LINE#         315
  C:0950H         LINE#         316
  C:0957H         LINE#         317
  C:095AH         LINE#         318
  C:095AH         LINE#         319
  C:0967H         LINE#         320
  -------         ENDPROC       E2PROM_INIT
  -------         ENDMOD        MAIN

  -------         MODULE        TIME
  C:0000H         SYMBOL        _ICE_DUMMY_
  C:0B11H         PUBLIC        timflag_proc
  D:0080H         PUBLIC        P0
  D:0090H         PUBLIC        P1
  D:00A0H         PUBLIC        P2
  D:00B0H         PUBLIC        P3
  D:00C0H         PUBLIC        P4
  D:00C8H         PUBLIC        P5
  D:00E8H         PUBLIC        P6
  D:00F8H         PUBLIC        P7
  D:00A8H         PUBLIC        IE
  D:00B8H         PUBLIC        IP
  C:0BE5H         PUBLIC        PIT1
  D:00D8H         PUBLIC        CCON
  C:0E76H         PUBLIC        Timer1_Init
  D:0098H         PUBLIC        SCON
  B:0022H.0       PUBLIC        f_20ms_key
  D:0089H         PUBLIC        TMOD
  D:0088H         PUBLIC        TCON
  B:0022H.1       PUBLIC        f_100ms_state
  D:008EH         PUBLIC        AUXR
  B:0022H.2       PUBLIC        f_100ms_adc
  B:00A8H.3       PUBLIC        ET1
  B:0088H.7       PUBLIC        TF1
  C:0BA2H         PUBLIC        led_proc
  D:008DH         PUBLIC        TH1
  B:0022H.3       PUBLIC        f_100ms_led
  D:008BH         PUBLIC        TL1
  B:0088H.6       PUBLIC        TR1
  B:0022H.4       PUBLIC        f_200ms_uart
  B:0022H.5       PUBLIC        f_100ms_rtc
  B:0022H.6       PUBLIC        f_1s
  B:0022H.7       PUBLIC        f_800ms_blink8
  B:0023H.0       PUBLIC        f_2ms_led
  D:00D0H         PUBLIC        PSW
  -------         PROC          PIT1
  C:0BE5H         LINE#         14
  C:0C02H         LINE#         16
  C:0C05H         LINE#         17
  C:0C08H         LINE#         18
  C:0C0BH         LINE#         19
  -------         ENDPROC       PIT1
  -------         PROC          TIMER1_INIT
  C:0E76H         LINE#         21
  C:0E76H         LINE#         22
  C:0E76H         LINE#         23
  C:0E79H         LINE#         24
BL51 BANKED LINKER/LOCATER V6.22.4.0                                                  04/07/2024  16:27:45  PAGE 16


  C:0E7CH         LINE#         25
  C:0E7FH         LINE#         26
  C:0E82H         LINE#         27
  C:0E84H         LINE#         28
  C:0E86H         LINE#         29
  C:0E88H         LINE#         30
  -------         ENDPROC       TIMER1_INIT
  -------         PROC          TIMFLAG_PROC
  -------         DO            
  D:0051H         SYMBOL        cnt_20ms
  D:0052H         SYMBOL        cnt_100ms
  D:0053H         SYMBOL        cnt_200ms
  D:0054H         SYMBOL        cnt_800ms
  -------         ENDDO         
  C:0B11H         LINE#         32
  C:0B11H         LINE#         33
  C:0B11H         LINE#         39
  C:0B1AH         LINE#         40
  C:0B1AH         LINE#         41
  C:0B1DH         LINE#         42
  C:0B1FH         LINE#         43
  C:0B1FH         LINE#         44
  C:0B28H         LINE#         45
  C:0B28H         LINE#         46
  C:0B2BH         LINE#         47
  C:0B33H         LINE#         48
  C:0B33H         LINE#         49
  C:0B3CH         LINE#         50
  C:0B3CH         LINE#         51
  C:0B3FH         LINE#         52
  C:0B41H         LINE#         53
  C:0B41H         LINE#         54
  C:0B52H         LINE#         55
  C:0B52H         LINE#         56
  C:0B57H         LINE#         57
  C:0B59H         LINE#         58
  C:0B59H         LINE#         59
  -------         ENDPROC       TIMFLAG_PROC
  -------         PROC          LED_PROC
  -------         DO            
  D:0056H         SYMBOL        t
  -------         ENDDO         
  C:0BA2H         LINE#         61
  C:0BA2H         LINE#         62
  C:0BA2H         LINE#         65
  C:0BACH         LINE#         66
  C:0BBEH         LINE#         67
  C:0BBEH         LINE#         68
  C:0BBEH         LINE#         69
  C:0BC4H         LINE#         73
  C:0BC4H         LINE#         74
  C:0BCDH         LINE#         75
  C:0BCDH         LINE#         76
  C:0BCFH         LINE#         78
  C:0BCFH         LINE#         79
  C:0BD9H         LINE#         80
  C:0BD9H         LINE#         81
BL51 BANKED LINKER/LOCATER V6.22.4.0                                                  04/07/2024  16:27:45  PAGE 17


  C:0BDBH         LINE#         83
  C:0BDBH         LINE#         84
  C:0BE0H         LINE#         85
  C:0BE0H         LINE#         86
  C:0BE0H         LINE#         87
  -------         ENDPROC       LED_PROC
  -------         ENDMOD        TIME

  -------         MODULE        LED8
  C:0000H         SYMBOL        _ICE_DUMMY_
  D:0080H         PUBLIC        P0
  D:0090H         PUBLIC        P1
  D:00A0H         PUBLIC        P2
  D:00B0H         PUBLIC        P3
  D:00C0H         PUBLIC        P4
  D:00C8H         PUBLIC        P5
  D:00E8H         PUBLIC        P6
  D:00F8H         PUBLIC        P7
  D:00A8H         PUBLIC        IE
  D:00B8H         PUBLIC        IP
  D:00D8H         PUBLIC        CCON
  D:0098H         PUBLIC        SCON
  D:0026H         PUBLIC        dis_blink
  D:0088H         PUBLIC        TCON
  C:0C26H         PUBLIC        disp_scan
  C:0E06H         PUBLIC        seg
  C:0769H         PUBLIC        disp_tran
  D:002EH         PUBLIC        dis_buf
  D:00D0H         PUBLIC        PSW
  D:0036H         PUBLIC        dis_str
  -------         PROC          DISP_SCAN
  -------         DO            
  D:0025H         SYMBOL        i
  -------         ENDDO         
  C:0C26H         LINE#         39
  C:0C26H         LINE#         40
  C:0C26H         LINE#         43
  C:0C29H         LINE#         44
  C:0C2EH         LINE#         46
  C:0C3EH         LINE#         47
  C:0C43H         LINE#         49
  C:0C52H         LINE#         50
  C:0C57H         LINE#         52
  C:0C61H         LINE#         53
  -------         ENDPROC       DISP_SCAN
  -------         PROC          DISP_TRAN
  -------         DO            
  D:0008H         SYMBOL        i
  D:0009H         SYMBOL        j
  D:000AH         SYMBOL        temp
  -------         ENDDO         
  C:0769H         LINE#         55
  C:0769H         LINE#         56
  C:0769H         LINE#         57
  C:076CH         LINE#         58
  C:076EH         LINE#         60
  C:077AH         LINE#         61
BL51 BANKED LINKER/LOCATER V6.22.4.0                                                  04/07/2024  16:27:45  PAGE 18


  C:077AH         LINE#         62
  C:07D2H         LINE#         63
  C:07D2H         LINE#         64
  C:07D7H         LINE#         65
  C:07DCH         LINE#         66
  C:07E1H         LINE#         67
  C:07E6H         LINE#         68
  C:07EBH         LINE#         69
  C:07F0H         LINE#         70
  C:07F5H         LINE#         71
  C:07FAH         LINE#         72
  C:07FFH         LINE#         73
  C:0804H         LINE#         74
  C:0809H         LINE#         75
  C:080EH         LINE#         76
  C:0813H         LINE#         77
  C:0818H         LINE#         78
  C:081DH         LINE#         79
  C:0822H         LINE#         80
  C:0827H         LINE#         81
  C:082CH         LINE#         82
  C:0831H         LINE#         83
  C:0836H         LINE#         84
  C:083BH         LINE#         85
  C:0840H         LINE#         86
  C:0845H         LINE#         87
  C:084AH         LINE#         88
  C:0853H         LINE#         89
  C:0856H         LINE#         90
  C:0856H         LINE#         91
  C:085FH         LINE#         92
  C:085FH         LINE#         93
  C:0862H         LINE#         94
  C:0864H         LINE#         95
  C:0864H         LINE#         96
  C:086BH         LINE#         97
  C:0872H         LINE#         98
  -------         ENDPROC       DISP_TRAN
  -------         ENDMOD        LED8

  -------         MODULE        KEY
  C:0000H         SYMBOL        _ICE_DUMMY_
  D:0080H         PUBLIC        P0
  D:0090H         PUBLIC        P1
  D:00A0H         PUBLIC        P2
  D:00B0H         PUBLIC        P3
  D:00C0H         PUBLIC        P4
  D:00C8H         PUBLIC        P5
  D:00E8H         PUBLIC        P6
  D:00F8H         PUBLIC        P7
  D:00A8H         PUBLIC        IE
  D:00B8H         PUBLIC        IP
  D:00D8H         PUBLIC        CCON
  B:00B0H.0       PUBLIC        P30
  D:0098H         PUBLIC        SCON
  B:00B0H.1       PUBLIC        P31
  D:0088H         PUBLIC        TCON
BL51 BANKED LINKER/LOCATER V6.22.4.0                                                  04/07/2024  16:27:45  PAGE 19


  B:00B0H.2       PUBLIC        P32
  B:00C0H.2       PUBLIC        P42
  B:00B0H.3       PUBLIC        P33
  B:00C0H.4       PUBLIC        P44
  D:001DH         PUBLIC        key_code
  C:0D5DH         PUBLIC        getkeybtn
  C:0B5AH         PUBLIC        key_proc
  C:0CEBH         PUBLIC        getkey22
  D:00D0H         PUBLIC        PSW
  -------         PROC          GETKEY22
  -------         DO            
  D:0007H         SYMBOL        tmp
  -------         ENDDO         
  C:0CEBH         LINE#         4
  C:0CEBH         LINE#         5
  C:0CEBH         LINE#         6
  C:0CEDH         LINE#         8
  C:0CF1H         LINE#         9
  C:0CF5H         LINE#         10
  C:0CF9H         LINE#         11
  C:0CFFH         LINE#         15
  C:0D03H         LINE#         16
  C:0D07H         LINE#         17
  C:0D0EH         LINE#         18
  C:0D15H         LINE#         20
  C:0D15H         LINE#         21
  -------         ENDPROC       GETKEY22
  -------         PROC          GETKEYBTN
  -------         DO            
  D:0007H         SYMBOL        tmp
  -------         ENDDO         
  C:0D5DH         LINE#         22
  C:0D5DH         LINE#         23
  C:0D5DH         LINE#         24
  C:0D5FH         LINE#         25
  C:0D67H         LINE#         26
  C:0D6BH         LINE#         27
  C:0D70H         LINE#         28
  C:0D75H         LINE#         29
  C:0D7AH         LINE#         30
  C:0D7AH         LINE#         32
  -------         ENDPROC       GETKEYBTN
  -------         PROC          KEY_PROC
  -------         DO            
  D:001CH         SYMBOL        k_state
  D:0007H         SYMBOL        k_tmp
  -------         ENDDO         
  C:0B5AH         LINE#         34
  C:0B5AH         LINE#         35
  C:0B5AH         LINE#         37
  C:0B5CH         LINE#         39
  C:0B5FH         LINE#         42
  C:0B71H         LINE#         43
  C:0B71H         LINE#         44
  C:0B71H         LINE#         45
  C:0B77H         LINE#         46
  C:0B78H         LINE#         47
BL51 BANKED LINKER/LOCATER V6.22.4.0                                                  04/07/2024  16:27:45  PAGE 20


  C:0B78H         LINE#         48
  C:0B7BH         LINE#         49
  C:0B7BH         LINE#         50
  C:0B7EH         LINE#         51
  C:0B81H         LINE#         52
  C:0B81H         LINE#         53
  C:0B84H         LINE#         54
  C:0B88H         LINE#         55
  C:0B89H         LINE#         57
  C:0B89H         LINE#         58
  C:0B8CH         LINE#         59
  C:0B8CH         LINE#         61
  C:0B8EH         LINE#         62
  C:0B8FH         LINE#         63
  C:0B8FH         LINE#         64
  C:0B92H         LINE#         65
  C:0B92H         LINE#         66
  C:0B94H         LINE#         67
  C:0B96H         LINE#         68
  C:0B96H         LINE#         69
  C:0B97H         LINE#         70
  C:0B97H         LINE#         71
  C:0B9AH         LINE#         72
  C:0B9AH         LINE#         73
  C:0B9DH         LINE#         74
  C:0BA1H         LINE#         75
  C:0BA1H         LINE#         76
  -------         ENDPROC       KEY_PROC
  -------         ENDMOD        KEY

  -------         MODULE        ?C?IMUL
  C:0968H         PUBLIC        ?C?IMUL
  -------         ENDMOD        ?C?IMUL

  -------         MODULE        ?C?ILDIX
  C:097AH         PUBLIC        ?C?ILDIX
  -------         ENDMOD        ?C?ILDIX

  -------         MODULE        ?C?CCASE
  C:0990H         PUBLIC        ?C?CCASE
  -------         ENDMOD        ?C?CCASE

  -------         MODULE        PRINTF
  D:0008H         PUBLIC        ?_PRINTF517?BYTE
  D:0008H         PUBLIC        ?_PRINTF?BYTE
  D:0008H         PUBLIC        ?_SPRINTF517?BYTE
  D:0008H         PUBLIC        ?_SPRINTF?BYTE
  C:0080H         PUBLIC        _PRINTF
  C:0080H         PUBLIC        _PRINTF517
  C:007AH         PUBLIC        _SPRINTF
  C:007AH         PUBLIC        _SPRINTF517
  -------         ENDMOD        PRINTF

  -------         MODULE        ?C?CLDPTR
  C:09B6H         PUBLIC        ?C?CLDPTR
  -------         ENDMOD        ?C?CLDPTR

BL51 BANKED LINKER/LOCATER V6.22.4.0                                                  04/07/2024  16:27:45  PAGE 21


  -------         MODULE        ?C?CLDOPTR
  C:09CFH         PUBLIC        ?C?CLDOPTR
  -------         ENDMOD        ?C?CLDOPTR

  -------         MODULE        ?C?CSTPTR
  C:09FCH         PUBLIC        ?C?CSTPTR
  -------         ENDMOD        ?C?CSTPTR

  -------         MODULE        ?C?PLDIIDATA
  C:0A0EH         PUBLIC        ?C?PLDIIDATA
  -------         ENDMOD        ?C?PLDIIDATA

  -------         MODULE        PUTCHAR
  C:0D16H         PUBLIC        _PUTCHAR
  -------         ENDMOD        PUTCHAR

Program Size: data=86.4 xdata=16 code=3814
LINK/LOCATE RUN COMPLETE.  0 WARNING(S),  0 ERROR(S)
