BL51 BANKED LINKER/LOCATER V6.22.2.0                                                    12/16/2024  17:10:16  PAGE 1


BL51 BANKED LINKER/LOCATER V6.22.2.0, INVOKED BY:
C:\SOFTWARE\KEILV5\KEIL\CORE\C51\BIN\BL51.EXE .\Objects\main.obj, .\Objects\time.obj, .\Objects\ctrl.obj, .\Objects\smg.
>> obj, .\Objects\iic.obj, .\Objects\onewire.obj, .\Objects\rtc.obj, .\Objects\key.obj, .\Objects\wave.obj, .\Objects\ua
>> rt.obj, .\Objects\led.obj TO .\Objects\test PRINT (.\Listings\test.m51) RAMSIZE (256) DISABLEWARNING (16)


MEMORY MODEL: SMALL WITH FLOATING POINT ARITHMETIC


INPUT MODULES INCLUDED:
  .\Objects\main.obj (MAIN)
  .\Objects\time.obj (TIME)
  .\Objects\ctrl.obj (CTRL)
  .\Objects\smg.obj (SMG)
  .\Objects\iic.obj (IIC)
  .\Objects\onewire.obj (ONEWIRE)
  .\Objects\rtc.obj (RTC)
  .\Objects\key.obj (KEY)
  .\Objects\wave.obj (WAVE)
  .\Objects\uart.obj (UART)
  .\Objects\led.obj (LED)
  C:\SOFTWARE\KEILV5\KEIL\CORE\C51\LIB\C51FPS.LIB (?C?FPMUL)
  C:\SOFTWARE\KEILV5\KEIL\CORE\C51\LIB\C51FPS.LIB (?C?FCAST)
  C:\SOFTWARE\KEILV5\KEIL\CORE\C51\LIB\C51FPS.LIB (?C?CASTF)
  C:\SOFTWARE\KEILV5\KEIL\CORE\C51\LIB\C51FPS.LIB (PRINTF)
  C:\SOFTWARE\KEILV5\KEIL\CORE\C51\LIB\C51FPS.LIB (?C?FPGETOPN)
  C:\SOFTWARE\KEILV5\KEIL\CORE\C51\LIB\C51FPS.LIB (?C?FPROUND)
  C:\SOFTWARE\KEILV5\KEIL\CORE\C51\LIB\C51FPS.LIB (?C?FPCONVERT)
  C:\SOFTWARE\KEILV5\KEIL\CORE\C51\LIB\C51FPS.LIB (?C?FPADD)
  C:\SOFTWARE\KEILV5\KEIL\CORE\C51\LIB\C51FPS.LIB (?C?FPDIV)
  C:\SOFTWARE\KEILV5\KEIL\CORE\C51\LIB\C51FPS.LIB (?C?FTNPWR)
  C:\SOFTWARE\KEILV5\KEIL\CORE\C51\LIB\C51S.LIB (?C_STARTUP)
  C:\SOFTWARE\KEILV5\KEIL\CORE\C51\LIB\C51S.LIB (?C?CLDPTR)
  C:\SOFTWARE\KEILV5\KEIL\CORE\C51\LIB\C51S.LIB (?C?CLDOPTR)
  C:\SOFTWARE\KEILV5\KEIL\CORE\C51\LIB\C51S.LIB (?C?CSTPTR)
  C:\SOFTWARE\KEILV5\KEIL\CORE\C51\LIB\C51S.LIB (?C?LNEG)
  C:\SOFTWARE\KEILV5\KEIL\CORE\C51\LIB\C51S.LIB (?C?ULCMP)
  C:\SOFTWARE\KEILV5\KEIL\CORE\C51\LIB\C51S.LIB (?C?LLDIDATA)
  C:\SOFTWARE\KEILV5\KEIL\CORE\C51\LIB\C51S.LIB (?C?LLDIDATA0)
  C:\SOFTWARE\KEILV5\KEIL\CORE\C51\LIB\C51S.LIB (?C?LSTIDATA)
  C:\SOFTWARE\KEILV5\KEIL\CORE\C51\LIB\C51S.LIB (?C?LSTXDATA)
  C:\SOFTWARE\KEILV5\KEIL\CORE\C51\LIB\C51S.LIB (?C?PLDIIDATA)
  C:\SOFTWARE\KEILV5\KEIL\CORE\C51\LIB\C51S.LIB (?C?CCASE)
  C:\SOFTWARE\KEILV5\KEIL\CORE\C51\LIB\C51S.LIB (?C?ICALL)
  C:\SOFTWARE\KEILV5\KEIL\CORE\C51\LIB\C51S.LIB (PUTCHAR)
  C:\SOFTWARE\KEILV5\KEIL\CORE\C51\LIB\C51S.LIB (?C_INIT)


LINK MAP OF MODULE:  .\Objects\test (MAIN)


            TYPE    BASE      LENGTH    RELOCATION   SEGMENT NAME
            -----------------------------------------------------

            * * * * * * *   D A T A   M E M O R Y   * * * * * * *
            REG     0000H     0008H     ABSOLUTE     "REG BANK 0"
            DATA    0008H     0014H     UNIT         ?DT?SMG
            DATA    001CH     0004H     UNIT         ?DT?KEY
BL51 BANKED LINKER/LOCATER V6.22.2.0                                                  12/16/2024  17:10:16  PAGE 2


            DATA    0020H     0001H     BIT_ADDR     ?BA?LED
            BIT     0021H.0   0001H.1   UNIT         _BIT_GROUP_
                    0022H.1   0000H.7                *** GAP ***
            DATA    0023H     001CH     UNIT         _DATA_GROUP_
            DATA    003FH     0007H     UNIT         ?DT?TIME
            DATA    0046H     0001H     UNIT         ?DT?CTRL
            IDATA   0047H     0059H     UNIT         ?ID?MAIN
            IDATA   00A0H     0004H     UNIT         ?ID?TIME
            IDATA   00A4H     0001H     UNIT         ?STACK

            * * * * * * *  X D A T A   M E M O R Y  * * * * * * *
            XDATA   0000H     000EH     UNIT         ?XD?MAIN
            XDATA   000EH     0008H     UNIT         ?XD?UART

            * * * * * * *   C O D E   M E M O R Y   * * * * * * *
            CODE    0000H     0003H     ABSOLUTE     
            CODE    0003H     0018H     UNIT         ?PR?_I2CSENDACK?IIC
            CODE    001BH     0003H     ABSOLUTE     
            CODE    001EH     0005H     UNIT         ?PR?SCHEDULER_INIT?MAIN
            CODE    0023H     0003H     ABSOLUTE     
            CODE    0026H     05E3H     UNIT         ?C?LIB_CODE
            CODE    0609H     046FH     UNIT         ?PR?PRINTF?PRINTF
            CODE    0A78H     00CCH     UNIT         ?PR?DISP_PROC?SMG
            CODE    0B44H     00ADH     UNIT         ?PR?SMG_PROC?SMG
            CODE    0BF1H     0092H     UNIT         ?C_INITSEG
            CODE    0C83H     0092H     UNIT         ?PR?KEY_SCAN?KEY
            CODE    0D15H     008CH     UNIT         ?C_C51STARTUP
            CODE    0DA1H     0089H     UNIT         ?PR?KEY_PROC?KEY
            CODE    0E2AH     0087H     UNIT         ?PR?TIM_PROC?TIME
            CODE    0EB1H     0075H     UNIT         ?PR?SCHEDULER_RUN?MAIN
            CODE    0F26H     0057H     UNIT         ?PR?UART_PROC?UART
            CODE    0F7DH     0055H     UNIT         ?PR?PIT1?TIME
            CODE    0FD2H     0052H     UNIT         ?CO?SMG
            CODE    1024H     004BH     UNIT         ?PR?INIT?MAIN
            CODE    106FH     0049H     UNIT         ?PR?RTC_PROC?RTC
            CODE    10B8H     0040H     UNIT         ?PR?UART1_ISR?UART
            CODE    10F8H     003DH     UNIT         ?PR?_READ_DS1302_BYTE?RTC
            CODE    1135H     003CH     UNIT         ?PR?READ_TEMP?ONEWIRE
            CODE    1171H     003CH     UNIT         ?PR?READ_D?WAVE
            CODE    11ADH     0035H     UNIT         ?PR?_I2CSENDBYTE?IIC
            CODE    11E2H     0034H     UNIT         ?PR?DISP_SCAN?SMG
            CODE    1216H     002EH     UNIT         ?PR?GETKEY22?KEY
            CODE    1244H     0027H     UNIT         ?PR?_WRITE_DS18B20?ONEWIRE
            CODE    126BH     0027H     UNIT         ?PR?INIT_DS18B20?ONEWIRE
            CODE    1292H     0027H     UNIT         ?PR?_RTC_RUN?RTC
            CODE    12B9H     0027H     UNIT         ?PR?PUTCHAR?PUTCHAR
            CODE    12E0H     0026H     UNIT         ?PR?I2CRECEIVEBYTE?IIC
            CODE    1306H     0023H     UNIT         ?PR?ADC_PROC?IIC
            CODE    1329H     0023H     UNIT         ?PR?READ_DS18B20?ONEWIRE
            CODE    134CH     001FH     UNIT         ?PR?WAVE_PROC?WAVE
            CODE    136BH     001EH     UNIT         ?PR?_DELAY_ONEWIRE?ONEWIRE
            CODE    1389H     001EH     UNIT         ?PR?GETKEYBTN?KEY
            CODE    13A7H     001DH     UNIT         ?PR?I2CWAITACK?IIC
            CODE    13C4H     001CH     UNIT         ?PR?I2CSTOP?IIC
            CODE    13E0H     001CH     UNIT         ?PR?_WRITE_DS1302?RTC
            CODE    13FCH     001AH     UNIT         ?PR?_I2C_DELAY?IIC
            CODE    1416H     0018H     UNIT         ?PR?_R_E2P?IIC
BL51 BANKED LINKER/LOCATER V6.22.2.0                                                  12/16/2024  17:10:16  PAGE 3


            CODE    142EH     0018H     UNIT         ?PR?LED_PROC?LED
            CODE    1446H     0017H     UNIT         ?PR?_W_E2P?IIC
            CODE    145DH     0015H     UNIT         ?PR?_W_DAC?IIC
            CODE    1472H     0015H     UNIT         ?PR?UART1_INIT?UART
            CODE    1487H     0014H     UNIT         ?PR?_WRITE_DS1302_BYTE?RTC
            CODE    149BH     0013H     UNIT         ?PR?TIMER0_INIT?TIME
            CODE    14AEH     0013H     UNIT         ?PR?TIMER1_INIT?TIME
            CODE    14C1H     0012H     UNIT         ?PR?_OFF?CTRL
            CODE    14D3H     0011H     UNIT         ?PR?_ON?CTRL
            CODE    14E4H     0010H     UNIT         ?CO?UART
            CODE    14F4H     000FH     UNIT         ?PR?I2CSTART?IIC
            CODE    1503H     000EH     UNIT         ?PR?UU_INIT?UART
            CODE    1511H     000DH     UNIT         ?PR?_INIT_AD?IIC
            CODE    151EH     000DH     UNIT         ?PR?INIT_TEMP?ONEWIRE
            CODE    152BH     000BH     UNIT         ?PR?READ_AD?IIC
            CODE    1536H     000AH     UNIT         ?PR?MAIN?MAIN
            CODE    1540H     000AH     UNIT         ?PR?_GATE?CTRL
            CODE    154AH     000AH     UNIT         ?PR?LED_SCAN?LED
            CODE    1554H     0009H     UNIT         ?PR?TEMP_PROC?ONEWIRE
            CODE    155DH     0007H     UNIT         ?PR?_DE?WAVE



OVERLAY MAP OF MODULE:   .\Objects\test (MAIN)


SEGMENT                               BIT_GROUP          DATA_GROUP 
  +--> CALLED SEGMENT              START    LENGTH     START    LENGTH
----------------------------------------------------------------------
?PR?PIT1?TIME                      -----    -----      -----    -----
  +--> ?PR?DISP_SCAN?SMG
  +--> ?PR?TIM_PROC?TIME

?PR?DISP_SCAN?SMG                  -----    -----      -----    -----
  +--> ?PR?_GATE?CTRL

?PR?TIM_PROC?TIME                  -----    -----      -----    -----
  +--> ?PR?LED_SCAN?LED

?PR?LED_SCAN?LED                   -----    -----      -----    -----
  +--> ?PR?_GATE?CTRL

*** NEW ROOT ***************************************************

?C_C51STARTUP                      -----    -----      -----    -----
  +--> ?PR?MAIN?MAIN
  +--> ?C_INITSEG

?PR?MAIN?MAIN                      -----    -----      -----    -----
  +--> ?PR?INIT?MAIN
  +--> ?PR?SCHEDULER_RUN?MAIN

?PR?INIT?MAIN                      -----    -----      -----    -----
  +--> ?PR?_OFF?CTRL
  +--> ?PR?_RTC_RUN?RTC
  +--> ?PR?_INIT_AD?IIC
  +--> ?PR?INIT_TEMP?ONEWIRE
BL51 BANKED LINKER/LOCATER V6.22.2.0                                                  12/16/2024  17:10:16  PAGE 4


  +--> ?PR?SCHEDULER_INIT?MAIN
  +--> ?PR?UART1_INIT?UART
  +--> ?PR?UU_INIT?UART
  +--> ?PR?TIMER0_INIT?TIME
  +--> ?PR?TIMER1_INIT?TIME

?PR?_OFF?CTRL                      -----    -----      -----    -----
  +--> ?PR?_GATE?CTRL

?PR?_RTC_RUN?RTC                   -----    -----      -----    -----
  +--> ?PR?_WRITE_DS1302_BYTE?RTC

?PR?_WRITE_DS1302_BYTE?RTC         -----    -----      -----    -----
  +--> ?PR?_WRITE_DS1302?RTC

?PR?_INIT_AD?IIC                   -----    -----      -----    -----
  +--> ?PR?I2CSTART?IIC
  +--> ?PR?I2CWAITACK?IIC
  +--> ?PR?I2CSTOP?IIC

?PR?I2CSTART?IIC                   -----    -----      -----    -----
  +--> ?PR?_I2C_DELAY?IIC

?PR?I2CWAITACK?IIC                 -----    -----      -----    -----
  +--> ?PR?_I2CSENDBYTE?IIC
  +--> ?PR?_I2C_DELAY?IIC

?PR?_I2CSENDBYTE?IIC               -----    -----      -----    -----
  +--> ?PR?_I2C_DELAY?IIC

?PR?I2CSTOP?IIC                    -----    -----      -----    -----
  +--> ?PR?_I2CSENDBYTE?IIC
  +--> ?PR?I2CWAITACK?IIC
  +--> ?PR?I2CRECEIVEBYTE?IIC
  +--> ?PR?_I2CSENDACK?IIC
  +--> ?PR?_I2C_DELAY?IIC

?PR?I2CRECEIVEBYTE?IIC             -----    -----      -----    -----
  +--> ?PR?_I2C_DELAY?IIC

?PR?_I2CSENDACK?IIC                -----    -----      -----    -----
  +--> ?PR?_I2C_DELAY?IIC

?PR?INIT_TEMP?ONEWIRE              -----    -----      -----    -----
  +--> ?PR?INIT_DS18B20?ONEWIRE
  +--> ?PR?_WRITE_DS18B20?ONEWIRE

?PR?INIT_DS18B20?ONEWIRE           0021H.0  0000H.1    -----    -----
  +--> ?PR?_DELAY_ONEWIRE?ONEWIRE

?PR?_WRITE_DS18B20?ONEWIRE         -----    -----      -----    -----
  +--> ?PR?_DELAY_ONEWIRE?ONEWIRE

?PR?SCHEDULER_RUN?MAIN             -----    -----      0023H    0005H

?C_INITSEG                         -----    -----      -----    -----
  +--> ?PR?LED_PROC?LED
BL51 BANKED LINKER/LOCATER V6.22.2.0                                                  12/16/2024  17:10:16  PAGE 5


  +--> ?PR?KEY_PROC?KEY
  +--> ?PR?SMG_PROC?SMG
  +--> ?PR?UART_PROC?UART
  +--> ?PR?TEMP_PROC?ONEWIRE
  +--> ?PR?WAVE_PROC?WAVE
  +--> ?PR?RTC_PROC?RTC
  +--> ?PR?ADC_PROC?IIC

?PR?KEY_PROC?KEY                   -----    -----      -----    -----
  +--> ?PR?KEY_SCAN?KEY

?PR?KEY_SCAN?KEY                   -----    -----      -----    -----
  +--> ?PR?GETKEY22?KEY

?PR?SMG_PROC?SMG                   -----    -----      -----    -----
  +--> ?CO?SMG
  +--> ?PR?PRINTF?PRINTF
  +--> ?PR?DISP_PROC?SMG

?PR?PRINTF?PRINTF                  0021H.0  0001H.1    0023H    001CH
  +--> ?PR?PUTCHAR?PUTCHAR

?PR?DISP_PROC?SMG                  -----    -----      0023H    0003H
  +--> ?CO?SMG

?PR?UART_PROC?UART                 -----    -----      -----    -----
  +--> ?CO?UART
  +--> ?PR?PRINTF?PRINTF
  +--> ?PR?UU_INIT?UART

?PR?TEMP_PROC?ONEWIRE              -----    -----      -----    -----
  +--> ?PR?READ_TEMP?ONEWIRE

?PR?READ_TEMP?ONEWIRE              -----    -----      0023H    0005H
  +--> ?PR?INIT_DS18B20?ONEWIRE
  +--> ?PR?_WRITE_DS18B20?ONEWIRE
  +--> ?PR?READ_DS18B20?ONEWIRE
  +--> ?PR?INIT_TEMP?ONEWIRE

?PR?READ_DS18B20?ONEWIRE           -----    -----      -----    -----
  +--> ?PR?_DELAY_ONEWIRE?ONEWIRE

?PR?WAVE_PROC?WAVE                 -----    -----      -----    -----
  +--> ?PR?READ_D?WAVE

?PR?READ_D?WAVE                    -----    -----      0023H    0001H
  +--> ?PR?_DE?WAVE

?PR?RTC_PROC?RTC                   -----    -----      -----    -----
  +--> ?PR?_READ_DS1302_BYTE?RTC

?PR?_READ_DS1302_BYTE?RTC          -----    -----      -----    -----
  +--> ?PR?_WRITE_DS1302?RTC

?PR?ADC_PROC?IIC                   -----    -----      -----    -----
  +--> ?PR?READ_AD?IIC
  +--> ?PR?_ON?CTRL
BL51 BANKED LINKER/LOCATER V6.22.2.0                                                  12/16/2024  17:10:16  PAGE 6


  +--> ?PR?_OFF?CTRL
  +--> ?PR?_W_DAC?IIC

?PR?READ_AD?IIC                    -----    -----      -----    -----
  +--> ?PR?I2CSTART?IIC
  +--> ?PR?I2CSTOP?IIC

?PR?_ON?CTRL                       -----    -----      -----    -----
  +--> ?PR?_GATE?CTRL

?PR?_W_DAC?IIC                     -----    -----      -----    -----
  +--> ?PR?I2CSTART?IIC
  +--> ?PR?_I2CSENDBYTE?IIC
  +--> ?PR?I2CWAITACK?IIC
  +--> ?PR?I2CSTOP?IIC



SYMBOL TABLE OF MODULE:  .\Objects\test (MAIN)

  VALUE           TYPE          NAME
  ----------------------------------

  -------         MODULE        MAIN
  C:0000H         SYMBOL        _ICE_DUMMY_
  D:0080H         PUBLIC        P0
  D:0090H         PUBLIC        P1
  D:00A0H         PUBLIC        P2
  D:00B0H         PUBLIC        P3
  D:00C0H         PUBLIC        P4
  D:00C8H         PUBLIC        P5
  B:00A8H.7       PUBLIC        EA
  D:00E8H         PUBLIC        P6
  D:00F8H         PUBLIC        P7
  D:00F9H         PUBLIC        CH
  D:00A8H         PUBLIC        IE
  D:00E9H         PUBLIC        CL
  D:00B8H         PUBLIC        IP
  I:0047H         PUBLIC        Scheduler_Task
  C:001EH         PUBLIC        Scheduler_Init
  D:00D9H         PUBLIC        CMOD
  D:00D8H         PUBLIC        CCON
  C:1536H         PUBLIC        main
  D:0098H         PUBLIC        SCON
  D:0088H         PUBLIC        TCON
  C:1024H         PUBLIC        init
  C:0EB1H         PUBLIC        Scheduler_Run
  X:0000H         PUBLIC        cj
  I:009FH         PUBLIC        task_num
  D:00D0H         PUBLIC        PSW
  -------         PROC          INIT
  C:1024H         LINE#         7
  C:1024H         LINE#         8
  C:1024H         LINE#         10
  C:102EH         LINE#         12
  C:1035H         LINE#         14
  C:103DH         LINE#         15
BL51 BANKED LINKER/LOCATER V6.22.2.0                                                  12/16/2024  17:10:16  PAGE 7


  C:1042H         LINE#         16
  C:1045H         LINE#         18
  C:104BH         LINE#         19
  C:1055H         LINE#         20
  C:1060H         LINE#         22
  C:1063H         LINE#         24
  C:1066H         LINE#         25
  C:1069H         LINE#         27
  C:106CH         LINE#         28
  -------         ENDPROC       INIT
  -------         PROC          MAIN
  C:1536H         LINE#         32
  C:1536H         LINE#         33
  C:1536H         LINE#         35
  C:1539H         LINE#         37
  C:153BH         LINE#         38
  C:153BH         LINE#         39
  C:153BH         LINE#         40
  C:153EH         LINE#         41
  -------         ENDPROC       MAIN
  -------         PROC          SCHEDULER_INIT
  C:001EH         LINE#         64
  C:001EH         LINE#         65
  C:001EH         LINE#         66
  C:0022H         LINE#         67
  -------         ENDPROC       SCHEDULER_INIT
  -------         PROC          SCHEDULER_RUN
  -------         DO            
  D:0023H         SYMBOL        i
  -------         DO            
  D:0024H         SYMBOL        now_time
  -------         ENDDO         
  -------         ENDDO         
  C:0EB1H         LINE#         69
  C:0EB1H         LINE#         70
  C:0EB1H         LINE#         72
  C:0EBCH         LINE#         73
  C:0EBCH         LINE#         74
  C:0EC9H         LINE#         75
  C:0EFBH         LINE#         76
  C:0EFBH         LINE#         77
  C:0F0FH         LINE#         78
  C:0F21H         LINE#         79
  C:0F21H         LINE#         80
  C:0F25H         LINE#         81
  -------         ENDPROC       SCHEDULER_RUN
  -------         ENDMOD        MAIN

  -------         MODULE        TIME
  C:0000H         SYMBOL        _ICE_DUMMY_
  C:0F7DH         PUBLIC        pit1
  D:0080H         PUBLIC        P0
  D:0090H         PUBLIC        P1
  D:00A0H         PUBLIC        P2
  D:00B0H         PUBLIC        P3
  D:00C0H         PUBLIC        P4
  D:00C8H         PUBLIC        P5
BL51 BANKED LINKER/LOCATER V6.22.2.0                                                  12/16/2024  17:10:16  PAGE 8


  D:00E8H         PUBLIC        P6
  D:00F8H         PUBLIC        P7
  D:0044H         PUBLIC        f_wei
  D:00A8H         PUBLIC        IE
  D:00B8H         PUBLIC        IP
  D:0045H         PUBLIC        f_on
  D:00D8H         PUBLIC        CCON
  C:149BH         PUBLIC        Timer0_Init
  C:14AEH         PUBLIC        Timer1_Init
  D:0098H         PUBLIC        SCON
  D:0089H         PUBLIC        TMOD
  D:0088H         PUBLIC        TCON
  D:008EH         PUBLIC        AUXR
  B:0088H.5       PUBLIC        TF0
  B:00A8H.3       PUBLIC        ET1
  B:0088H.7       PUBLIC        TF1
  D:008CH         PUBLIC        TH0
  D:008DH         PUBLIC        TH1
  D:008AH         PUBLIC        TL0
  D:008BH         PUBLIC        TL1
  B:0088H.4       PUBLIC        TR0
  B:0088H.6       PUBLIC        TR1
  C:0E2AH         PUBLIC        tim_proc
  I:00A0H         PUBLIC        uwTick
  D:00D0H         PUBLIC        PSW
  -------         PROC          TIMER0_INIT
  C:149BH         LINE#         8
  C:149BH         LINE#         9
  C:149BH         LINE#         10
  C:149EH         LINE#         11
  C:14A1H         LINE#         12
  C:14A4H         LINE#         13
  C:14A7H         LINE#         14
  C:14A9H         LINE#         15
  C:14ABH         LINE#         16
  C:14ADH         LINE#         17
  -------         ENDPROC       TIMER0_INIT
  -------         PROC          TIMER1_INIT
  C:14AEH         LINE#         19
  C:14AEH         LINE#         20
  C:14AEH         LINE#         21
  C:14B1H         LINE#         22
  C:14B4H         LINE#         23
  C:14B7H         LINE#         24
  C:14BAH         LINE#         25
  C:14BCH         LINE#         26
  C:14BEH         LINE#         27
  C:14C0H         LINE#         28
  -------         ENDPROC       TIMER1_INIT
  -------         PROC          PIT1
  C:0F7DH         LINE#         31
  C:0F9AH         LINE#         33
  C:0FB1H         LINE#         34
  C:0FB4H         LINE#         35
  C:0FB7H         LINE#         36
  -------         ENDPROC       PIT1
  -------         PROC          TIM_PROC
BL51 BANKED LINKER/LOCATER V6.22.2.0                                                  12/16/2024  17:10:16  PAGE 9


  -------         DO            
  D:003FH         SYMBOL        cnt_20ms
  D:0040H         SYMBOL        cnt_800ms
  D:0042H         SYMBOL        cnt_1s
  -------         ENDDO         
  C:0E2AH         LINE#         39
  C:0E2AH         LINE#         40
  C:0E2AH         LINE#         46
  C:0E37H         LINE#         47
  C:0E3AH         LINE#         48
  C:0E3DH         LINE#         49
  C:0E3DH         LINE#         52
  C:0E4EH         LINE#         53
  C:0E53H         LINE#         54
  C:0E5FH         LINE#         55
  C:0E6BH         LINE#         56
  C:0E6BH         LINE#         59
  C:0E7CH         LINE#         60
  C:0E81H         LINE#         61
  C:0E90H         LINE#         62
  C:0E95H         LINE#         63
  C:0E95H         LINE#         66
  C:0E9BH         LINE#         67
  C:0EAAH         LINE#         68
  C:0EB0H         LINE#         69
  C:0EB0H         LINE#         70
  C:0EB0H         LINE#         71
  -------         ENDPROC       TIM_PROC
  -------         ENDMOD        TIME

  -------         MODULE        CTRL
  C:0000H         SYMBOL        _ICE_DUMMY_
  D:0080H         PUBLIC        P0
  D:0090H         PUBLIC        P1
  D:00A0H         PUBLIC        P2
  D:00B0H         PUBLIC        P3
  D:00C0H         PUBLIC        P4
  D:00C8H         PUBLIC        P5
  D:00E8H         PUBLIC        P6
  D:00F8H         PUBLIC        P7
  D:00A8H         PUBLIC        IE
  D:00B8H         PUBLIC        IP
  C:1540H         PUBLIC        _gate
  D:00D8H         PUBLIC        CCON
  D:0098H         PUBLIC        SCON
  D:0088H         PUBLIC        TCON
  C:14C1H         PUBLIC        _off
  D:0046H         PUBLIC        ctrl_dat
  C:14D3H         PUBLIC        _on
  D:00D0H         PUBLIC        PSW
  -------         PROC          _GATE
  D:0007H         SYMBOL        a
  C:1540H         LINE#         10
  C:1540H         LINE#         11
  C:1540H         LINE#         13
  C:1543H         LINE#         15
  C:1546H         LINE#         17
BL51 BANKED LINKER/LOCATER V6.22.2.0                                                  12/16/2024  17:10:16  PAGE 10


  C:1549H         LINE#         18
  -------         ENDPROC       _GATE
  -------         PROC          _ON
  D:0007H         SYMBOL        a
  C:14D3H         LINE#         24
  C:14D3H         LINE#         25
  C:14D3H         LINE#         27
  C:14D8H         LINE#         29
  C:14DBH         LINE#         31
  C:14DEH         LINE#         33
  C:14E3H         LINE#         34
  -------         ENDPROC       _ON
  -------         PROC          _OFF
  D:0007H         SYMBOL        a
  C:14C1H         LINE#         40
  C:14C1H         LINE#         41
  C:14C1H         LINE#         43
  C:14C6H         LINE#         45
  C:14CAH         LINE#         47
  C:14CDH         LINE#         49
  C:14D2H         LINE#         50
  -------         ENDPROC       _OFF
  -------         ENDMOD        CTRL

  -------         MODULE        SMG
  C:0000H         SYMBOL        _ICE_DUMMY_
  D:0080H         PUBLIC        P0
  D:0090H         PUBLIC        P1
  D:00A0H         PUBLIC        P2
  D:00B0H         PUBLIC        P3
  D:00C0H         PUBLIC        P4
  D:00C8H         PUBLIC        P5
  D:00E8H         PUBLIC        P6
  D:00F8H         PUBLIC        P7
  D:00A8H         PUBLIC        IE
  D:00B8H         PUBLIC        IP
  D:00D8H         PUBLIC        CCON
  D:0098H         PUBLIC        SCON
  D:0088H         PUBLIC        TCON
  C:11E2H         PUBLIC        disp_scan
  C:1014H         PUBLIC        smg
  C:0A78H         PUBLIC        disp_proc
  C:0B44H         PUBLIC        smg_proc
  D:0009H         PUBLIC        dis_buf
  D:00D0H         PUBLIC        PSW
  D:0011H         PUBLIC        dis_str
  -------         PROC          DISP_SCAN
  -------         DO            
  D:0008H         SYMBOL        i
  -------         ENDDO         
  C:11E2H         LINE#         25
  C:11E2H         LINE#         26
  C:11E2H         LINE#         28
  C:11E5H         LINE#         29
  C:11EAH         LINE#         30
  C:11F2H         LINE#         31
  C:11F7H         LINE#         32
BL51 BANKED LINKER/LOCATER V6.22.2.0                                                  12/16/2024  17:10:16  PAGE 11


  C:1206H         LINE#         33
  C:120BH         LINE#         34
  C:1215H         LINE#         35
  -------         ENDPROC       DISP_SCAN
  -------         PROC          DISP_PROC
  -------         DO            
  D:0023H         SYMBOL        i
  D:0024H         SYMBOL        j
  D:0025H         SYMBOL        tmp
  -------         ENDDO         
  C:0A78H         LINE#         37
  C:0A78H         LINE#         38
  C:0A78H         LINE#         39
  C:0A7BH         LINE#         40
  C:0A8BH         LINE#         41
  C:0A8BH         LINE#         42
  C:0ACBH         LINE#         43
  C:0ACBH         LINE#         44
  C:0AD0H         LINE#         45
  C:0AD5H         LINE#         46
  C:0ADAH         LINE#         47
  C:0ADFH         LINE#         48
  C:0AE4H         LINE#         49
  C:0AE9H         LINE#         50
  C:0AEEH         LINE#         51
  C:0AF3H         LINE#         52
  C:0AF8H         LINE#         53
  C:0AFDH         LINE#         54
  C:0B02H         LINE#         55
  C:0B07H         LINE#         56
  C:0B0CH         LINE#         57
  C:0B11H         LINE#         58
  C:0B16H         LINE#         59
  C:0B1FH         LINE#         60
  C:0B24H         LINE#         61
  C:0B27H         LINE#         62
  C:0B27H         LINE#         63
  C:0B30H         LINE#         64
  C:0B30H         LINE#         65
  C:0B33H         LINE#         66
  C:0B35H         LINE#         67
  C:0B35H         LINE#         68
  C:0B3CH         LINE#         69
  C:0B43H         LINE#         70
  -------         ENDPROC       DISP_PROC
  -------         PROC          SMG_PROC
  C:0B44H         LINE#         72
  C:0B44H         LINE#         73
  C:0B44H         LINE#         74
  C:0B5EH         LINE#         75
  C:0B5EH         LINE#         76
  C:0B5EH         LINE#         77
  C:0B62H         LINE#         78
  C:0B77H         LINE#         80
  C:0B86H         LINE#         81
  C:0B88H         LINE#         82
  C:0B88H         LINE#         83
BL51 BANKED LINKER/LOCATER V6.22.2.0                                                  12/16/2024  17:10:16  PAGE 12


  C:0B8CH         LINE#         84
  C:0B9DH         LINE#         86
  C:0BB0H         LINE#         87
  C:0BB2H         LINE#         88
  C:0BD6H         LINE#         89
  C:0BEEH         LINE#         90
  C:0BEEH         LINE#         91
  -------         ENDPROC       SMG_PROC
  -------         ENDMOD        SMG

  -------         MODULE        IIC
  C:0000H         SYMBOL        _ICE_DUMMY_
  D:0080H         PUBLIC        P0
  C:145DH         PUBLIC        _w_dac
  D:0090H         PUBLIC        P1
  D:00A0H         PUBLIC        P2
  D:00B0H         PUBLIC        P3
  D:00C0H         PUBLIC        P4
  D:00C8H         PUBLIC        P5
  D:00E8H         PUBLIC        P6
  D:00F8H         PUBLIC        P7
  D:00A8H         PUBLIC        IE
  C:1400H         SYMBOL        _I2C_Delay
  D:00B8H         PUBLIC        IP
  C:12E0H         PUBLIC        I2CReceiveByte
  D:00D8H         PUBLIC        CCON
  D:0098H         PUBLIC        SCON
  D:0088H         PUBLIC        TCON
  B:00A0H.1       PUBLIC        sda
  C:1306H         PUBLIC        adc_proc
  B:00A0H.0       PUBLIC        scl
  C:152BH         PUBLIC        read_ad
  C:14F4H         PUBLIC        I2CStart
  C:1416H         PUBLIC        _r_e2p
  C:0003H         PUBLIC        _I2CSendAck
  C:1511H         PUBLIC        _init_ad
  C:1446H         PUBLIC        _w_e2p
  C:11ADH         PUBLIC        _I2CSendByte
  C:13B2H         PUBLIC        I2CWaitAck
  C:13D4H         PUBLIC        I2CStop
  D:00D0H         PUBLIC        PSW
  C:13FCH         SYMBOL        L?0031
  -------         PROC          L?0030
  -------         ENDPROC       L?0030
  C:13FCH         SYMBOL        L?0031
  -------         PROC          _I2C_DELAY
  D:0007H         SYMBOL        n
  C:1400H         LINE#         11
  C:1400H         LINE#         12
  C:1400H         LINE#         14
  C:1400H         LINE#         15
  C:1405H         LINE#         16
  C:140AH         LINE#         17
  C:140FH         LINE#         18
  C:140FH         LINE#         19
  C:1415H         LINE#         20
  -------         ENDPROC       _I2C_DELAY
BL51 BANKED LINKER/LOCATER V6.22.2.0                                                  12/16/2024  17:10:16  PAGE 13


  -------         PROC          I2CSTART
  C:14F4H         LINE#         23
  C:14F4H         LINE#         24
  C:14F4H         LINE#         25
  C:14F6H         LINE#         26
  C:14F6H         LINE#         27
  C:14F9H         LINE#         28
  C:14FBH         LINE#         29
  C:1500H         LINE#         30
  C:1502H         LINE#         31
  -------         ENDPROC       I2CSTART
  -------         PROC          L?0032
  -------         ENDPROC       L?0032
  -------         PROC          I2CSTOP
  C:13D4H         LINE#         34
  C:13D4H         LINE#         35
  C:13D4H         LINE#         36
  C:13D6H         LINE#         37
  C:13D6H         LINE#         38
  C:13D9H         LINE#         39
  C:13DBH         LINE#         40
  -------         ENDPROC       I2CSTOP
  -------         PROC          _I2CSENDBYTE
  D:0005H         SYMBOL        byt
  -------         DO            
  D:0004H         SYMBOL        i
  -------         ENDDO         
  C:11ADH         LINE#         44
  C:11AFH         LINE#         45
  C:11AFH         LINE#         48
  C:11BBH         LINE#         49
  C:11BDH         LINE#         50
  C:11C2H         LINE#         51
  C:11C6H         LINE#         52
  C:11C8H         LINE#         53
  C:11CAH         LINE#         54
  C:11CAH         LINE#         55
  C:11CCH         LINE#         56
  C:11CCH         LINE#         57
  C:11D1H         LINE#         58
  C:11D3H         LINE#         59
  C:11D7H         LINE#         60
  C:11DCH         LINE#         61
  C:11DFH         LINE#         63
  C:11E1H         LINE#         64
  -------         ENDPROC       _I2CSENDBYTE
  -------         PROC          I2CRECEIVEBYTE
  -------         DO            
  D:0005H         SYMBOL        da
  D:0004H         SYMBOL        i
  -------         ENDDO         
  C:12E0H         LINE#         67
  C:12E0H         LINE#         68
  C:12E0H         LINE#         71
  C:12ECH         LINE#         72
  C:12ECH         LINE#         73
  C:12EFH         LINE#         74
BL51 BANKED LINKER/LOCATER V6.22.2.0                                                  12/16/2024  17:10:16  PAGE 14


  C:12F3H         LINE#         75
  C:12F6H         LINE#         76
  C:12F9H         LINE#         77
  C:12FBH         LINE#         78
  C:1300H         LINE#         79
  C:1303H         LINE#         80
  C:1305H         LINE#         81
  -------         ENDPROC       I2CRECEIVEBYTE
  C:13A7H         SYMBOL        L?0029
  -------         PROC          L?0028
  -------         ENDPROC       L?0028
  C:13A7H         SYMBOL        L?0029
  -------         PROC          I2CWAITACK
  -------         DO            
  D:0005H         SYMBOL        ackbit
  -------         ENDDO         
  C:13B2H         LINE#         84
  C:13B2H         LINE#         85
  C:13B2H         LINE#         88
  C:13B2H         LINE#         89
  C:13B5H         LINE#         90
  C:13BAH         LINE#         91
  C:13BCH         LINE#         92
  C:13C1H         LINE#         94
  C:13C3H         LINE#         95
  -------         ENDPROC       I2CWAITACK
  -------         PROC          _I2CSENDACK
  D:0007H         SYMBOL        ackbit
  C:0003H         LINE#         98
  C:0003H         LINE#         99
  C:0003H         LINE#         100
  C:0005H         LINE#         101
  C:000AH         LINE#         102
  C:000FH         LINE#         103
  C:000FH         LINE#         104
  C:0012H         LINE#         105
  C:0014H         LINE#         106
  C:0016H         LINE#         107
  -------         ENDPROC       _I2CSENDACK
  -------         PROC          _INIT_AD
  D:0003H         SYMBOL        add
  C:1511H         LINE#         110
  C:1513H         LINE#         111
  C:1513H         LINE#         112
  C:1516H         LINE#         113
  C:1518H         LINE#         114
  C:1518H         LINE#         115
  C:1518H         LINE#         116
  C:151BH         LINE#         117
  -------         ENDPROC       _INIT_AD
  -------         PROC          READ_AD
  -------         DO            
  D:0005H         SYMBOL        tmp
  -------         ENDDO         
  C:152BH         LINE#         121
  C:152BH         LINE#         122
  C:152BH         LINE#         124
BL51 BANKED LINKER/LOCATER V6.22.2.0                                                  12/16/2024  17:10:16  PAGE 15


  C:152EH         LINE#         125
  C:1530H         LINE#         126
  C:1530H         LINE#         127
  C:1530H         LINE#         128
  C:1530H         LINE#         129
  C:1533H         LINE#         130
  C:1535H         LINE#         131
  -------         ENDPROC       READ_AD
  -------         PROC          _W_DAC
  D:0003H         SYMBOL        val
  C:145DH         LINE#         133
  C:145FH         LINE#         134
  C:145FH         LINE#         135
  C:1462H         LINE#         136
  C:1467H         LINE#         137
  C:146AH         LINE#         138
  C:146CH         LINE#         139
  C:146CH         LINE#         140
  C:146CH         LINE#         141
  C:146FH         LINE#         142
  -------         ENDPROC       _W_DAC
  -------         PROC          _W_E2P
  D:0002H         SYMBOL        add
  D:0003H         SYMBOL        val
  C:1446H         LINE#         145
  C:144AH         LINE#         146
  C:144AH         LINE#         147
  C:144DH         LINE#         148
  C:1452H         LINE#         149
  C:1455H         LINE#         150
  C:1457H         LINE#         151
  C:1457H         LINE#         152
  C:1457H         LINE#         153
  C:145AH         LINE#         154
  -------         ENDPROC       _W_E2P
  -------         PROC          _R_E2P
  D:0003H         SYMBOL        add
  -------         DO            
  D:0005H         SYMBOL        tmp
  -------         ENDDO         
  C:1416H         LINE#         157
  C:1418H         LINE#         158
  C:1418H         LINE#         160
  C:141BH         LINE#         161
  C:141DH         LINE#         162
  C:141DH         LINE#         163
  C:141DH         LINE#         164
  C:1420H         LINE#         165
  C:1423H         LINE#         167
  C:1426H         LINE#         168
  C:1428H         LINE#         169
  C:1428H         LINE#         170
  C:1428H         LINE#         171
  C:1428H         LINE#         172
  C:142BH         LINE#         173
  C:142DH         LINE#         174
  -------         ENDPROC       _R_E2P
BL51 BANKED LINKER/LOCATER V6.22.2.0                                                  12/16/2024  17:10:16  PAGE 16


  -------         PROC          ADC_PROC
  C:1306H         LINE#         179
  C:1306H         LINE#         180
  C:1306H         LINE#         181
  C:130EH         LINE#         183
  C:1319H         LINE#         184
  C:131EH         LINE#         186
  C:1321H         LINE#         188
  -------         ENDPROC       ADC_PROC
  -------         ENDMOD        IIC

  -------         MODULE        ONEWIRE
  C:0000H         SYMBOL        _ICE_DUMMY_
  D:0080H         PUBLIC        P0
  D:0090H         PUBLIC        P1
  D:00A0H         PUBLIC        P2
  D:00B0H         PUBLIC        P3
  D:00C0H         PUBLIC        P4
  C:1329H         PUBLIC        Read_DS18B20
  D:00C8H         PUBLIC        P5
  D:00E8H         PUBLIC        P6
  D:00F8H         PUBLIC        P7
  D:00A8H         PUBLIC        IE
  C:136FH         PUBLIC        _Delay_OneWire
  C:1244H         PUBLIC        _Write_DS18B20
  B:0090H.4       PUBLIC        DQ
  D:00B8H         PUBLIC        IP
  C:126BH         PUBLIC        init_ds18b20
  D:00D8H         PUBLIC        CCON
  D:0098H         PUBLIC        SCON
  D:0088H         PUBLIC        TCON
  C:1135H         PUBLIC        read_temp
  C:1554H         PUBLIC        temp_proc
  C:151EH         PUBLIC        init_temp
  D:00D0H         PUBLIC        PSW
  C:136BH         SYMBOL        L?0022
  -------         PROC          L?0021
  -------         ENDPROC       L?0021
  C:136BH         SYMBOL        L?0022
  -------         PROC          _DELAY_ONEWIRE
  D:0006H         SYMBOL        t
  -------         DO            
  D:0005H         SYMBOL        i
  -------         ENDDO         
  C:136FH         LINE#         8
  C:136FH         LINE#         9
  C:136FH         LINE#         11
  C:1379H         LINE#         12
  C:1388H         LINE#         13
  C:1388H         LINE#         14
  -------         ENDPROC       _DELAY_ONEWIRE
  -------         PROC          _WRITE_DS18B20
  D:0001H         SYMBOL        dat
  -------         DO            
  D:0003H         SYMBOL        i
  -------         ENDDO         
  C:1244H         LINE#         17
BL51 BANKED LINKER/LOCATER V6.22.2.0                                                  12/16/2024  17:10:16  PAGE 17


  C:1246H         LINE#         18
  C:1246H         LINE#         20
  C:1252H         LINE#         21
  C:1252H         LINE#         22
  C:1254H         LINE#         23
  C:1258H         LINE#         24
  C:125BH         LINE#         25
  C:125DH         LINE#         26
  C:1261H         LINE#         27
  C:1264H         LINE#         28
  -------         ENDPROC       _WRITE_DS18B20
  -------         PROC          READ_DS18B20
  -------         DO            
  D:0003H         SYMBOL        i
  D:0004H         SYMBOL        dat
  -------         ENDDO         
  C:1329H         LINE#         32
  C:1329H         LINE#         33
  C:1329H         LINE#         37
  C:1335H         LINE#         38
  C:1335H         LINE#         39
  C:1337H         LINE#         40
  C:133BH         LINE#         41
  C:133DH         LINE#         42
  C:1340H         LINE#         43
  C:1340H         LINE#         44
  C:1343H         LINE#         45
  C:1343H         LINE#         46
  C:1346H         LINE#         47
  C:1349H         LINE#         48
  C:134BH         LINE#         49
  -------         ENDPROC       READ_DS18B20
  -------         PROC          INIT_DS18B20
  -------         DO            
  B:0021H.0       SYMBOL        initflag
  -------         ENDDO         
  C:126BH         LINE#         52
  C:126BH         LINE#         53
  C:126BH         LINE#         54
  C:126DH         LINE#         56
  C:126FH         LINE#         57
  C:1276H         LINE#         58
  C:1278H         LINE#         59
  C:127FH         LINE#         60
  C:1281H         LINE#         61
  C:1288H         LINE#         62
  C:128CH         LINE#         63
  C:128FH         LINE#         65
  C:1291H         LINE#         66
  -------         ENDPROC       INIT_DS18B20
  -------         PROC          INIT_TEMP
  C:151EH         LINE#         69
  C:151EH         LINE#         70
  C:151EH         LINE#         71
  C:1521H         LINE#         72
  C:1526H         LINE#         73
  -------         ENDPROC       INIT_TEMP
BL51 BANKED LINKER/LOCATER V6.22.2.0                                                  12/16/2024  17:10:16  PAGE 18


  -------         PROC          READ_TEMP
  -------         DO            
  D:0004H         SYMBOL        H
  D:0023H         SYMBOL        L
  D:0024H         SYMBOL        tmp
  -------         ENDDO         
  C:1135H         LINE#         76
  C:1135H         LINE#         77
  C:1135H         LINE#         80
  C:1138H         LINE#         81
  C:113DH         LINE#         82
  C:1142H         LINE#         83
  C:1147H         LINE#         84
  C:114CH         LINE#         85
  C:114FH         LINE#         86
  C:115FH         LINE#         87
  -------         ENDPROC       READ_TEMP
  -------         PROC          TEMP_PROC
  C:1554H         LINE#         90
  C:1554H         LINE#         91
  C:1554H         LINE#         92
  -------         ENDPROC       TEMP_PROC
  -------         ENDMOD        ONEWIRE

  -------         MODULE        RTC
  C:0000H         SYMBOL        _ICE_DUMMY_
  D:0080H         PUBLIC        P0
  D:0090H         PUBLIC        P1
  C:1292H         PUBLIC        _rtc_run
  D:00A0H         PUBLIC        P2
  D:00B0H         PUBLIC        P3
  D:00C0H         PUBLIC        P4
  D:00C8H         PUBLIC        P5
  B:00A8H.7       PUBLIC        EA
  D:00E8H         PUBLIC        P6
  D:00F8H         PUBLIC        P7
  D:00A8H         PUBLIC        IE
  D:00B8H         PUBLIC        IP
  D:00D8H         PUBLIC        CCON
  D:0098H         PUBLIC        SCON
  D:0088H         PUBLIC        TCON
  C:10F8H         PUBLIC        _Read_Ds1302_Byte
  B:00A0H.3       PUBLIC        SDA
  C:106FH         PUBLIC        rtc_proc
  B:0090H.7       PUBLIC        SCK
  C:1487H         PUBLIC        _Write_Ds1302_Byte
  C:13E0H         PUBLIC        _Write_Ds1302
  B:0090H.3       PUBLIC        RST
  D:00D0H         PUBLIC        PSW
  -------         PROC          _WRITE_DS1302
  D:0007H         SYMBOL        temp
  -------         DO            
  D:0006H         SYMBOL        i
  -------         ENDDO         
  C:13E0H         LINE#         8
  C:13E0H         LINE#         9
  C:13E0H         LINE#         11
BL51 BANKED LINKER/LOCATER V6.22.2.0                                                  12/16/2024  17:10:16  PAGE 19


  C:13ECH         LINE#         12
  C:13ECH         LINE#         13
  C:13EEH         LINE#         14
  C:13F2H         LINE#         15
  C:13F6H         LINE#         16
  C:13F8H         LINE#         17
  C:13FBH         LINE#         18
  -------         ENDPROC       _WRITE_DS1302
  -------         PROC          _WRITE_DS1302_BYTE
  D:0007H         SYMBOL        address
  D:0005H         SYMBOL        dat
  C:1487H         LINE#         21
  C:1487H         LINE#         22
  C:1487H         LINE#         23
  C:148AH         LINE#         24
  C:148DH         LINE#         25
  C:1490H         LINE#         26
  C:1493H         LINE#         27
  C:1498H         LINE#         28
  C:149AH         LINE#         29
  -------         ENDPROC       _WRITE_DS1302_BYTE
  -------         PROC          _READ_DS1302_BYTE
  D:0007H         SYMBOL        address
  -------         DO            
  D:0007H         SYMBOL        i
  D:0005H         SYMBOL        temp
  -------         ENDDO         
  C:10F8H         LINE#         32
  C:10F8H         LINE#         33
  C:10F8H         LINE#         34
  C:10FAH         LINE#         35
  C:10FDH         LINE#         36
  C:1100H         LINE#         37
  C:1103H         LINE#         38
  C:1106H         LINE#         39
  C:1112H         LINE#         40
  C:1112H         LINE#         41
  C:1114H         LINE#         42
  C:1118H         LINE#         43
  C:111BH         LINE#         44
  C:111EH         LINE#         45
  C:1120H         LINE#         46
  C:1123H         LINE#         47
  C:1126H         LINE#         48
  C:1129H         LINE#         49
  C:112CH         LINE#         50
  C:112FH         LINE#         51
  C:1132H         LINE#         52
  C:1134H         LINE#         53
  -------         ENDPROC       _READ_DS1302_BYTE
  -------         PROC          _RTC_RUN
  D:0004H         SYMBOL        h
  D:0002H         SYMBOL        m
  D:0003H         SYMBOL        s
  C:1292H         LINE#         65
  C:1296H         LINE#         66
  C:1296H         LINE#         68
BL51 BANKED LINKER/LOCATER V6.22.2.0                                                  12/16/2024  17:10:16  PAGE 20


  C:129DH         LINE#         70
  C:12A4H         LINE#         72
  C:12ABH         LINE#         74
  C:12B2H         LINE#         76
  -------         ENDPROC       _RTC_RUN
  -------         PROC          RTC_PROC
  -------         DO            
  D:0003H         SYMBOL        h
  D:0004H         SYMBOL        m
  D:0005H         SYMBOL        s
  -------         ENDDO         
  C:106FH         LINE#         84
  C:106FH         LINE#         85
  C:106FH         LINE#         89
  C:1071H         LINE#         91
  C:1078H         LINE#         93
  C:107FH         LINE#         95
  C:1086H         LINE#         97
  C:1088H         LINE#         100
  C:1099H         LINE#         101
  C:10A8H         LINE#         102
  C:10B7H         LINE#         103
  -------         ENDPROC       RTC_PROC
  -------         ENDMOD        RTC

  -------         MODULE        KEY
  C:0000H         SYMBOL        _ICE_DUMMY_
  D:0080H         PUBLIC        P0
  D:0090H         PUBLIC        P1
  D:00A0H         PUBLIC        P2
  D:00B0H         PUBLIC        P3
  D:00C0H         PUBLIC        P4
  D:00C8H         PUBLIC        P5
  D:00E8H         PUBLIC        P6
  D:00F8H         PUBLIC        P7
  D:00A8H         PUBLIC        IE
  D:00B8H         PUBLIC        IP
  D:00D8H         PUBLIC        CCON
  B:00B0H.0       PUBLIC        P30
  D:0098H         PUBLIC        SCON
  B:00B0H.1       PUBLIC        P31
  D:0088H         PUBLIC        TCON
  B:00B0H.2       PUBLIC        P32
  B:00C0H.2       PUBLIC        P42
  B:00B0H.3       PUBLIC        P33
  B:00C0H.4       PUBLIC        P44
  D:001FH         PUBLIC        key_code
  C:0C83H         PUBLIC        key_scan
  C:1389H         PUBLIC        getkeybtn
  C:0DA1H         PUBLIC        key_proc
  C:1216H         PUBLIC        getkey22
  D:00D0H         PUBLIC        PSW
  -------         PROC          GETKEYBTN
  -------         DO            
  D:0007H         SYMBOL        tmp
  -------         ENDDO         
  C:1389H         LINE#         5
BL51 BANKED LINKER/LOCATER V6.22.2.0                                                  12/16/2024  17:10:16  PAGE 21


  C:1389H         LINE#         6
  C:1389H         LINE#         7
  C:138BH         LINE#         8
  C:1391H         LINE#         9
  C:1398H         LINE#         10
  C:139FH         LINE#         11
  C:13A6H         LINE#         12
  C:13A6H         LINE#         13
  -------         ENDPROC       GETKEYBTN
  -------         PROC          GETKEY22
  -------         DO            
  D:0007H         SYMBOL        tmp
  -------         ENDDO         
  C:1216H         LINE#         15
  C:1216H         LINE#         16
  C:1216H         LINE#         17
  C:1218H         LINE#         18
  C:121CH         LINE#         19
  C:1220H         LINE#         20
  C:1226H         LINE#         21
  C:122DH         LINE#         22
  C:1231H         LINE#         23
  C:1235H         LINE#         24
  C:123CH         LINE#         25
  C:1243H         LINE#         27
  C:1243H         LINE#         28
  -------         ENDPROC       GETKEY22
  -------         PROC          KEY_SCAN
  -------         DO            
  D:001CH         SYMBOL        k_state
  D:001DH         SYMBOL        _key
  D:001EH         SYMBOL        _cnt
  D:0007H         SYMBOL        k_tmp
  -------         ENDDO         
  C:0C83H         LINE#         30
  C:0C83H         LINE#         31
  C:0C83H         LINE#         37
  C:0C86H         LINE#         38
  C:0C9CH         LINE#         39
  C:0C9CH         LINE#         40
  C:0C9CH         LINE#         41
  C:0CA2H         LINE#         42
  C:0CA3H         LINE#         43
  C:0CA3H         LINE#         44
  C:0CA6H         LINE#         45
  C:0CA6H         LINE#         46
  C:0CA8H         LINE#         47
  C:0CAFH         LINE#         48
  C:0CAFH         LINE#         49
  C:0CB2H         LINE#         50
  C:0CB4H         LINE#         51
  C:0CB5H         LINE#         52
  C:0CC1H         LINE#         53
  C:0CC1H         LINE#         54
  C:0CC4H         LINE#         55
  C:0CC7H         LINE#         56
  C:0CC8H         LINE#         57
BL51 BANKED LINKER/LOCATER V6.22.2.0                                                  12/16/2024  17:10:16  PAGE 22


  C:0CCBH         LINE#         58
  C:0CCCH         LINE#         60
  C:0CCCH         LINE#         61
  C:0CCFH         LINE#         62
  C:0CCFH         LINE#         63
  C:0CD2H         LINE#         64
  C:0CD4H         LINE#         65
  C:0CD4H         LINE#         66
  C:0CD5H         LINE#         67
  C:0CD5H         LINE#         68
  C:0CD8H         LINE#         69
  C:0CD8H         LINE#         70
  C:0CE5H         LINE#         71
  C:0CE5H         LINE#         72
  C:0CE8H         LINE#         73
  C:0CEBH         LINE#         74
  C:0CEBH         LINE#         75
  C:0CECH         LINE#         76
  C:0CEEH         LINE#         77
  C:0CEEH         LINE#         78
  C:0CF1H         LINE#         79
  C:0CF1H         LINE#         80
  C:0CF3H         LINE#         81
  C:0CF3H         LINE#         82
  C:0CF4H         LINE#         84
  C:0CF4H         LINE#         85
  C:0CF7H         LINE#         86
  C:0CF7H         LINE#         87
  C:0D04H         LINE#         88
  C:0D04H         LINE#         89
  C:0D0AH         LINE#         90
  C:0D0DH         LINE#         91
  C:0D0DH         LINE#         92
  C:0D0EH         LINE#         93
  C:0D0EH         LINE#         94
  C:0D11H         LINE#         95
  C:0D14H         LINE#         96
  C:0D14H         LINE#         97
  C:0D14H         LINE#         98
  C:0D14H         LINE#         99
  -------         ENDPROC       KEY_SCAN
  -------         PROC          KEY_PROC
  C:0DA1H         LINE#         102
  C:0DA1H         LINE#         103
  C:0DA1H         LINE#         105
  C:0DA4H         LINE#         107
  C:0DB6H         LINE#         108
  C:0DB6H         LINE#         109
  C:0DB6H         LINE#         110
  C:0DCAH         LINE#         111
  C:0DCAH         LINE#         112
  C:0DD2H         LINE#         113
  C:0DDAH         LINE#         114
  C:0DE2H         LINE#         115
  C:0DEAH         LINE#         116
  C:0DEAH         LINE#         117
  C:0DEAH         LINE#         118
BL51 BANKED LINKER/LOCATER V6.22.2.0                                                  12/16/2024  17:10:16  PAGE 23


  C:0DEAH         LINE#         120
  C:0DF2H         LINE#         121
  C:0DF2H         LINE#         122
  C:0E05H         LINE#         123
  C:0E05H         LINE#         124
  C:0E05H         LINE#         125
  C:0E05H         LINE#         127
  C:0E0DH         LINE#         128
  C:0E0DH         LINE#         129
  C:0E21H         LINE#         130
  C:0E21H         LINE#         131
  C:0E21H         LINE#         132
  C:0E21H         LINE#         134
  C:0E21H         LINE#         135
  C:0E21H         LINE#         136
  C:0E26H         LINE#         137
  C:0E26H         LINE#         138
  C:0E26H         LINE#         139
  C:0E29H         LINE#         140
  -------         ENDPROC       KEY_PROC
  -------         ENDMOD        KEY

  -------         MODULE        WAVE
  C:0000H         SYMBOL        _ICE_DUMMY_
  D:0080H         PUBLIC        P0
  D:0090H         PUBLIC        P1
  D:00A0H         PUBLIC        P2
  D:00B0H         PUBLIC        P3
  D:00C0H         PUBLIC        P4
  D:00C8H         PUBLIC        P5
  B:00A8H.7       PUBLIC        EA
  D:00E8H         PUBLIC        P6
  D:00F8H         PUBLIC        P7
  D:00F9H         PUBLIC        CH
  D:00A8H         PUBLIC        IE
  D:00E9H         PUBLIC        CL
  B:00D8H.6       PUBLIC        CR
  D:00B8H         PUBLIC        IP
  D:00D8H         PUBLIC        CCON
  B:0090H.1       PUBLIC        RX
  B:0090H.0       PUBLIC        TX
  D:0098H         PUBLIC        SCON
  D:0088H         PUBLIC        TCON
  C:155DH         PUBLIC        _de
  C:134CH         PUBLIC        wave_proc
  C:1171H         PUBLIC        read_d
  D:00D0H         PUBLIC        PSW
  -------         PROC          READ_D
  -------         DO            
  D:0006H         SYMBOL        d
  D:0023H         SYMBOL        num
  -------         ENDDO         
  C:1171H         LINE#         5
  C:1171H         LINE#         6
  C:1171H         LINE#         8
  C:1174H         LINE#         10
  C:1176H         LINE#         11
BL51 BANKED LINKER/LOCATER V6.22.2.0                                                  12/16/2024  17:10:16  PAGE 24


  C:1178H         LINE#         12
  C:117FH         LINE#         13
  C:117FH         LINE#         14
  C:1184H         LINE#         15
  C:1186H         LINE#         16
  C:1188H         LINE#         17
  C:118AH         LINE#         19
  C:118FH         LINE#         20
  C:1191H         LINE#         21
  C:11A0H         LINE#         22
  C:11A2H         LINE#         23
  C:11ACH         LINE#         24
  C:11ACH         LINE#         25
  -------         ENDPROC       READ_D
  -------         PROC          _DE
  D:0007H         SYMBOL        a
  C:155DH         LINE#         27
  C:155DH         LINE#         28
  C:155DH         LINE#         29
  C:1563H         LINE#         30
  -------         ENDPROC       _DE
  -------         PROC          WAVE_PROC
  C:134CH         LINE#         33
  C:134CH         LINE#         34
  C:134CH         LINE#         35
  C:136AH         LINE#         36
  -------         ENDPROC       WAVE_PROC
  -------         ENDMOD        WAVE

  -------         MODULE        UART
  C:0000H         SYMBOL        _ICE_DUMMY_
  D:0080H         PUBLIC        P0
  D:0090H         PUBLIC        P1
  C:1503H         PUBLIC        uu_init
  D:00A0H         PUBLIC        P2
  D:00B0H         PUBLIC        P3
  D:00C0H         PUBLIC        P4
  D:00C8H         PUBLIC        P5
  D:00E8H         PUBLIC        P6
  D:00F8H         PUBLIC        P7
  D:00A8H         PUBLIC        IE
  B:00A8H.4       PUBLIC        ES
  D:00B8H         PUBLIC        IP
  B:0098H.0       PUBLIC        RI
  B:0098H.1       PUBLIC        TI
  D:00D8H         PUBLIC        CCON
  D:0099H         PUBLIC        SBUF
  D:0098H         PUBLIC        SCON
  D:0088H         PUBLIC        TCON
  D:008EH         PUBLIC        AUXR
  C:1472H         PUBLIC        Uart1_Init
  D:00D6H         PUBLIC        T2H
  D:00D7H         PUBLIC        T2L
  C:0F26H         PUBLIC        uart_proc
  C:10B8H         PUBLIC        Uart1_Isr
  X:000EH         PUBLIC        uu
  D:00D0H         PUBLIC        PSW
BL51 BANKED LINKER/LOCATER V6.22.2.0                                                  12/16/2024  17:10:16  PAGE 25


  -------         PROC          UART1_ISR
  C:10B8H         LINE#         3
  C:10C5H         LINE#         5
  C:10C8H         LINE#         6
  C:10C8H         LINE#         7
  C:10CAH         LINE#         8
  C:10CAH         LINE#         9
  C:10CDH         LINE#         10
  C:10CDH         LINE#         11
  C:10CFH         LINE#         12
  C:10E3H         LINE#         13
  C:10E9H         LINE#         14
  C:10EDH         LINE#         15
  C:10EDH         LINE#         16
  -------         ENDPROC       UART1_ISR
  -------         PROC          UART1_INIT
  C:1472H         LINE#         18
  C:1472H         LINE#         19
  C:1472H         LINE#         20
  C:1475H         LINE#         21
  C:1478H         LINE#         22
  C:147BH         LINE#         23
  C:147EH         LINE#         24
  C:1481H         LINE#         25
  C:1484H         LINE#         27
  C:1486H         LINE#         28
  -------         ENDPROC       UART1_INIT
  -------         PROC          UU_INIT
  C:1503H         LINE#         30
  C:1503H         LINE#         31
  C:1503H         LINE#         32
  C:1508H         LINE#         33
  C:150AH         LINE#         34
  C:150CH         LINE#         35
  C:150EH         LINE#         36
  C:1510H         LINE#         37
  -------         ENDPROC       UU_INIT
  -------         PROC          UART_PROC
  C:0F26H         LINE#         43
  C:0F26H         LINE#         44
  C:0F26H         LINE#         46
  C:0F2CH         LINE#         47
  C:0F2CH         LINE#         48
  C:0F2EH         LINE#         50
  C:0F34H         LINE#         51
  C:0F34H         LINE#         52
  C:0F34H         LINE#         54
  C:0F45H         LINE#         55
  C:0F4DH         LINE#         58
  C:0F53H         LINE#         59
  C:0F53H         LINE#         60
  C:0F53H         LINE#         61
  C:0F53H         LINE#         63
  C:0F59H         LINE#         64
  C:0F59H         LINE#         66
  C:0F5DH         LINE#         68
  C:0F64H         LINE#         69
BL51 BANKED LINKER/LOCATER V6.22.2.0                                                  12/16/2024  17:10:16  PAGE 26


  C:0F64H         LINE#         70
  C:0F6CH         LINE#         71
  C:0F75H         LINE#         72
  C:0F75H         LINE#         74
  C:0F79H         LINE#         76
  C:0F7CH         LINE#         77
  C:0F7CH         LINE#         78
  -------         ENDPROC       UART_PROC
  -------         ENDMOD        UART

  -------         MODULE        LED
  C:0000H         SYMBOL        _ICE_DUMMY_
  B:0020H.2       PUBLIC        L3
  B:0020H.3       PUBLIC        L4
  D:0080H         PUBLIC        P0
  B:0020H.4       PUBLIC        L5
  D:0090H         PUBLIC        P1
  B:0020H.5       PUBLIC        L6
  D:00A0H         PUBLIC        P2
  B:0020H.6       PUBLIC        L7
  D:00B0H         PUBLIC        P3
  B:0020H.7       PUBLIC        L8
  D:00C0H         PUBLIC        P4
  D:00C8H         PUBLIC        P5
  D:00E8H         PUBLIC        P6
  D:00F8H         PUBLIC        P7
  D:00A8H         PUBLIC        IE
  D:00B8H         PUBLIC        IP
  D:00D8H         PUBLIC        CCON
  D:0098H         PUBLIC        SCON
  D:0088H         PUBLIC        TCON
  C:154AH         PUBLIC        led_scan
  C:142EH         PUBLIC        led_proc
  D:0020H         PUBLIC        led_dat
  D:00D0H         PUBLIC        PSW
  B:0020H.0       PUBLIC        L1
  B:0020H.1       PUBLIC        L2
  -------         PROC          LED_SCAN
  C:154AH         LINE#         19
  C:154AH         LINE#         20
  C:154AH         LINE#         21
  C:154FH         LINE#         22
  -------         ENDPROC       LED_SCAN
  -------         PROC          LED_PROC
  C:142EH         LINE#         29
  C:142EH         LINE#         30
  C:142EH         LINE#         31
  C:1431H         LINE#         33
  C:1439H         LINE#         34
  C:1439H         LINE#         35
  C:1439H         LINE#         37
  C:143DH         LINE#         38
  C:1445H         LINE#         39
  C:1445H         LINE#         40
  C:1445H         LINE#         41
  -------         ENDPROC       LED_PROC
  -------         ENDMOD        LED
BL51 BANKED LINKER/LOCATER V6.22.2.0                                                  12/16/2024  17:10:16  PAGE 27



  -------         MODULE        ?C?FPMUL
  C:0026H         PUBLIC        ?C?FPMUL
  -------         ENDMOD        ?C?FPMUL

  -------         MODULE        ?C?FCAST
  C:0136H         PUBLIC        ?C?FCASTC
  C:0131H         PUBLIC        ?C?FCASTI
  C:012CH         PUBLIC        ?C?FCASTL
  -------         ENDMOD        ?C?FCAST

  -------         MODULE        ?C?CASTF
  C:016AH         PUBLIC        ?C?CASTF
  -------         ENDMOD        ?C?CASTF

  -------         MODULE        PRINTF
  D:0023H         PUBLIC        ?_PRINTF?BYTE
  D:0023H         PUBLIC        ?_SPRINTF?BYTE
  C:066BH         PUBLIC        _PRINTF
  C:0665H         PUBLIC        _SPRINTF
  -------         ENDMOD        PRINTF

  -------         MODULE        ?C?FPROUND
  C:01EBH         PUBLIC        ?C?FPROUND
  -------         ENDMOD        ?C?FPROUND

  -------         MODULE        ?C?FPCONVERT
  C:021AH         PUBLIC        ?C?FPCONVERT
  -------         ENDMOD        ?C?FPCONVERT

  -------         MODULE        ?C?FPADD
  C:0324H         PUBLIC        ?C?FPADD
  C:0320H         PUBLIC        ?C?FPSUB
  -------         ENDMOD        ?C?FPADD

  -------         MODULE        ?C?FPDIV
  C:0418H         PUBLIC        ?C?FPDIV
  -------         ENDMOD        ?C?FPDIV

  -------         MODULE        ?C?FTNPWR
  C:04E5H         PUBLIC        ?C?FTNPWR
  -------         ENDMOD        ?C?FTNPWR

  -------         MODULE        ?C?CLDPTR
  C:0525H         PUBLIC        ?C?CLDPTR
  -------         ENDMOD        ?C?CLDPTR

  -------         MODULE        ?C?CLDOPTR
  C:053EH         PUBLIC        ?C?CLDOPTR
  -------         ENDMOD        ?C?CLDOPTR

  -------         MODULE        ?C?CSTPTR
  C:056BH         PUBLIC        ?C?CSTPTR
  -------         ENDMOD        ?C?CSTPTR

  -------         MODULE        ?C?LNEG
  C:057DH         PUBLIC        ?C?LNEG
BL51 BANKED LINKER/LOCATER V6.22.2.0                                                  12/16/2024  17:10:16  PAGE 28


  -------         ENDMOD        ?C?LNEG

  -------         MODULE        ?C?ULCMP
  C:058BH         PUBLIC        ?C?ULCMP
  -------         ENDMOD        ?C?ULCMP

  -------         MODULE        ?C?LLDIDATA
  C:059CH         PUBLIC        ?C?LLDIDATA
  -------         ENDMOD        ?C?LLDIDATA

  -------         MODULE        ?C?LLDIDATA0
  C:05A8H         PUBLIC        ?C?LLDIDATA0
  -------         ENDMOD        ?C?LLDIDATA0

  -------         MODULE        ?C?LSTIDATA
  C:05B5H         PUBLIC        ?C?LSTIDATA
  -------         ENDMOD        ?C?LSTIDATA

  -------         MODULE        ?C?LSTXDATA
  C:05C1H         PUBLIC        ?C?LSTXDATA
  -------         ENDMOD        ?C?LSTXDATA

  -------         MODULE        ?C?PLDIIDATA
  C:05CDH         PUBLIC        ?C?PLDIIDATA
  -------         ENDMOD        ?C?PLDIIDATA

  -------         MODULE        ?C?CCASE
  C:05DDH         PUBLIC        ?C?CCASE
  -------         ENDMOD        ?C?CCASE

  -------         MODULE        ?C?ICALL
  C:0603H         PUBLIC        ?C?ICALL
  C:0607H         PUBLIC        ?C?ICALL2
  -------         ENDMOD        ?C?ICALL

  -------         MODULE        PUTCHAR
  C:12B9H         PUBLIC        _PUTCHAR
  -------         ENDMOD        PUTCHAR

Program Size: data=164.1 xdata=22 code=5476
LINK/LOCATE RUN COMPLETE.  0 WARNING(S),  0 ERROR(S)
