BL51 BANKED LINKER/LOCATER V6.22.4.0                                                    05/30/2024  20:41:36  PAGE 1


BL51 BANKED LINKER/LOCATER V6.22.4.0, INVOKED BY:
D:\KEILC51\C51\C51\BIN\BL51.EXE .\Objects\main.obj, .\Objects\key.obj, .\Objects\smg.obj, .\Objects\time.obj, .\Objects\
>> iic.obj, .\Objects\ctrl.obj, .\Objects\wave.obj TO .\Objects\J13 PRINT (.\Listings\J13.m51) RAMSIZE (256) DISABLEWARN
>> ING (16)


MEMORY MODEL: SMALL WITH FLOATING POINT ARITHMETIC


INPUT MODULES INCLUDED:
  .\Objects\main.obj (MAIN)
  .\Objects\key.obj (KEY)
  .\Objects\smg.obj (SMG)
  .\Objects\time.obj (TIME)
  .\Objects\iic.obj (IIC)
  .\Objects\ctrl.obj (CTRL)
  .\Objects\wave.obj (WAVE)
  D:\KEILC51\C51\C51\LIB\C51FPS.LIB (?C?FPADD)
  D:\KEILC51\C51\C51\LIB\C51FPS.LIB (?C?FPMUL)
  D:\KEILC51\C51\C51\LIB\C51FPS.LIB (?C?FPDIV)
  D:\KEILC51\C51\C51\LIB\C51FPS.LIB (?C?FCAST)
  D:\KEILC51\C51\C51\LIB\C51FPS.LIB (?C?CASTF)
  D:\KEILC51\C51\C51\LIB\C51FPS.LIB (PRINTF)
  D:\KEILC51\C51\C51\LIB\C51FPS.LIB (?C?FPGETOPN)
  D:\KEILC51\C51\C51\LIB\C51FPS.LIB (?C?FPROUND)
  D:\KEILC51\C51\C51\LIB\C51FPS.LIB (?C?FPCONVERT)
  D:\KEILC51\C51\C51\LIB\C51FPS.LIB (?C?FTNPWR)
  D:\KEILC51\C51\C51\LIB\C51S.LIB (?C_STARTUP)
  D:\KEILC51\C51\C51\LIB\C51S.LIB (?C?CLDPTR)
  D:\KEILC51\C51\C51\LIB\C51S.LIB (?C?CLDOPTR)
  D:\KEILC51\C51\C51\LIB\C51S.LIB (?C?CSTPTR)
  D:\KEILC51\C51\C51\LIB\C51S.LIB (?C?IMUL)
  D:\KEILC51\C51\C51\LIB\C51S.LIB (?C?UIDIV)
  D:\KEILC51\C51\C51\LIB\C51S.LIB (?C?LNEG)
  D:\KEILC51\C51\C51\LIB\C51S.LIB (?C?PLDIIDATA)
  D:\KEILC51\C51\C51\LIB\C51S.LIB (?C?CCASE)
  D:\KEILC51\C51\C51\LIB\C51S.LIB (PUTCHAR)
  D:\KEILC51\C51\C51\LIB\C51S.LIB (?C_INIT)


LINK MAP OF MODULE:  .\Objects\J13 (MAIN)


            TYPE    BASE      LENGTH    RELOCATION   SEGMENT NAME
            -----------------------------------------------------

            * * * * * * *   D A T A   M E M O R Y   * * * * * * *
            REG     0000H     0008H     ABSOLUTE     "REG BANK 0"
            DATA    0008H     000CH     UNIT         ?DT?TIME
            DATA    0014H     0005H     UNIT         ?DT?KEY
            DATA    0019H     0001H     UNIT         ?DT?MAIN
            DATA    001AH     0001H     UNIT         ?DT?CTRL
                    001BH     0005H                  *** GAP ***
            DATA    0020H     0001H     BIT_ADDR     ?BA?MAIN
            BIT     0021H.0   0001H.1   UNIT         _BIT_GROUP_
            BIT     0022H.1   0000H.7   UNIT         ?BI?TIME
            BIT     0023H.0   0000H.1   UNIT         ?BI?MAIN
                    0023H.1   0000H.7                *** GAP ***
BL51 BANKED LINKER/LOCATER V6.22.4.0                                                  05/30/2024  20:41:36  PAGE 2


            DATA    0024H     001CH     UNIT         ?DT?SMG
            DATA    0040H     001CH     UNIT         _DATA_GROUP_
            IDATA   005CH     0001H     UNIT         ?STACK

            * * * * * * *  X D A T A   M E M O R Y  * * * * * * *
            XDATA   0000H     000FH     UNIT         ?XD?MAIN

            * * * * * * *   C O D E   M E M O R Y   * * * * * * *
            CODE    0000H     0003H     ABSOLUTE     
            CODE    0003H     0018H     UNIT         ?PR?_I2CSENDACK?IIC
            CODE    001BH     0003H     ABSOLUTE     
            CODE    001EH     0041H     UNIT         ?PR?TIMER1_ISR?TIME
                    005FH     0004H                  *** GAP ***
            CODE    0063H     0003H     ABSOLUTE     
            CODE    0066H     0602H     UNIT         ?C?LIB_CODE
            CODE    0668H     046FH     UNIT         ?PR?PRINTF?PRINTF
            CODE    0AD7H     016AH     UNIT         ?PR?KEY_MAINLOOP?MAIN
            CODE    0C41H     0147H     UNIT         ?PR?ADC_MAINLOOP?MAIN
            CODE    0D88H     0144H     UNIT         ?PR?STATE_MAINLOOP?MAIN
            CODE    0ECCH     0109H     UNIT         ?PR?DISP_PROC?SMG
            CODE    0FD5H     0090H     UNIT         ?PR?LED_MAINLOOP?MAIN
            CODE    1065H     008CH     UNIT         ?C_C51STARTUP
            CODE    10F1H     0073H     UNIT         ?PR?KEY_PROC?KEY
            CODE    1164H     0067H     UNIT         ?PR?MAIN_INIT?MAIN
            CODE    11CBH     0059H     UNIT         ?C_INITSEG
            CODE    1224H     004FH     UNIT         ?PR?TIM_PROC?TIME
            CODE    1273H     004DH     UNIT         ?CO?MAIN
            CODE    12C0H     003CH     UNIT         ?PR?DISP_SCAN?SMG
            CODE    12FCH     003CH     UNIT         ?PR?READ_D?WAVE
            CODE    1338H     003BH     UNIT         ?PR?TIMER2_ISR?TIME
            CODE    1373H     0030H     UNIT         ?PR?WAVE_MAINLOOP?MAIN
            CODE    13A3H     002CH     UNIT         ?PR?_I2CSENDBYTE?IIC
            CODE    13CFH     0029H     UNIT         ?PR?FREQ_MAINLOOP?MAIN
            CODE    13F8H     0027H     UNIT         ?PR?GETKEY22?KEY
            CODE    141FH     0027H     UNIT         ?PR?PUTCHAR?PUTCHAR
            CODE    1446H     0026H     UNIT         ?PR?NE555_PROC?TIME
            CODE    146CH     0023H     UNIT         ?PR?I2CRECEIVEBYTE?IIC
            CODE    148FH     0022H     UNIT         ?PR?_R_E2PROM?IIC
            CODE    14B1H     001DH     UNIT         ?PR?I2CWAITACK?IIC
            CODE    14CEH     001AH     UNIT         ?PR?MOTO_PROC?TIME
            CODE    14E8H     001AH     UNIT         ?PR?_I2C_DELAY?IIC
            CODE    1502H     001AH     UNIT         ?PR?_W_E2PROM?IIC
            CODE    151CH     0019H     UNIT         ?PR?MAIN?MAIN
            CODE    1535H     0017H     UNIT         ?PR?GETKEYBTN?KEY
            CODE    154CH     0015H     UNIT         ?PR?READ_AD?IIC
            CODE    1561H     0015H     UNIT         ?PR?_WRITE_DAC?IIC
            CODE    1576H     0013H     UNIT         ?PR?TIMER1_INIT?TIME
            CODE    1589H     0012H     UNIT         ?PR?_OFF?CTRL
            CODE    159BH     0011H     UNIT         ?PR?_ON?CTRL
            CODE    15ACH     0010H     UNIT         ?CO?SMG
            CODE    15BCH     0010H     UNIT         ?PR?NE555_INIT?TIME
            CODE    15CCH     0010H     UNIT         ?PR?TIMER2_INIT?TIME
            CODE    15DCH     000FH     UNIT         ?PR?I2CSTART?IIC
            CODE    15EBH     000DH     UNIT         ?PR?_INIT_AD?IIC
            CODE    15F8H     000CH     UNIT         ?PR?I2CSTOP?IIC
            CODE    1604H     000AH     UNIT         ?PR?LED_PROC?TIME
            CODE    160EH     000AH     UNIT         ?PR?_GATE?CTRL
BL51 BANKED LINKER/LOCATER V6.22.4.0                                                  05/30/2024  20:41:36  PAGE 3


            CODE    1618H     0009H     UNIT         ?PR?DELAY5MS?IIC
            CODE    1621H     0007H     UNIT         ?PR?_DE?WAVE



OVERLAY MAP OF MODULE:   .\Objects\J13 (MAIN)


SEGMENT                            BIT_GROUP          DATA_GROUP 
  +--> CALLED SEGMENT           START    LENGTH     START    LENGTH
-------------------------------------------------------------------
?PR?TIMER1_ISR?TIME             -----    -----      -----    -----
  +--> ?PR?TIM_PROC?TIME
  +--> ?PR?DISP_SCAN?SMG
  +--> ?PR?NE555_PROC?TIME

?PR?TIM_PROC?TIME               -----    -----      -----    -----
  +--> ?PR?LED_PROC?TIME

?PR?LED_PROC?TIME               -----    -----      -----    -----
  +--> ?PR?_GATE?CTRL

?PR?DISP_SCAN?SMG               -----    -----      -----    -----
  +--> ?PR?_GATE?CTRL

*** NEW ROOT ***************************************************

?PR?TIMER2_ISR?TIME             -----    -----      -----    -----
  +--> ?PR?MOTO_PROC?TIME

?PR?MOTO_PROC?TIME              -----    -----      -----    -----
  +--> ?PR?_ON?CTRL
  +--> ?PR?_OFF?CTRL

?PR?_ON?CTRL                    -----    -----      -----    -----
  +--> ?PR?_GATE?CTRL

?PR?_OFF?CTRL                   -----    -----      -----    -----
  +--> ?PR?_GATE?CTRL

*** NEW ROOT ***************************************************

?C_C51STARTUP                   -----    -----      -----    -----
  +--> ?PR?MAIN?MAIN
  +--> ?C_INITSEG

?PR?MAIN?MAIN                   -----    -----      -----    -----
  +--> ?PR?MAIN_INIT?MAIN
  +--> ?PR?KEY_MAINLOOP?MAIN
  +--> ?PR?STATE_MAINLOOP?MAIN
  +--> ?PR?WAVE_MAINLOOP?MAIN
  +--> ?PR?ADC_MAINLOOP?MAIN
  +--> ?PR?LED_MAINLOOP?MAIN
  +--> ?PR?FREQ_MAINLOOP?MAIN

?PR?MAIN_INIT?MAIN              -----    -----      -----    -----
  +--> ?PR?_R_E2PROM?IIC
BL51 BANKED LINKER/LOCATER V6.22.4.0                                                  05/30/2024  20:41:36  PAGE 4


  +--> ?PR?NE555_INIT?TIME
  +--> ?PR?TIMER2_INIT?TIME
  +--> ?PR?TIMER1_INIT?TIME
  +--> ?PR?_INIT_AD?IIC
  +--> ?PR?_OFF?CTRL

?PR?_R_E2PROM?IIC               -----    -----      0040H    0001H
  +--> ?PR?I2CSTART?IIC
  +--> ?PR?I2CWAITACK?IIC
  +--> ?PR?I2CRECEIVEBYTE?IIC
  +--> ?PR?_I2CSENDACK?IIC
  +--> ?PR?I2CSTOP?IIC
  +--> ?PR?DELAY5MS?IIC

?PR?I2CSTART?IIC                -----    -----      -----    -----
  +--> ?PR?_I2C_DELAY?IIC

?PR?I2CWAITACK?IIC              -----    -----      -----    -----
  +--> ?PR?_I2CSENDBYTE?IIC
  +--> ?PR?_I2C_DELAY?IIC

?PR?_I2CSENDBYTE?IIC            -----    -----      -----    -----
  +--> ?PR?_I2C_DELAY?IIC

?PR?I2CRECEIVEBYTE?IIC          -----    -----      -----    -----
  +--> ?PR?_I2CSENDBYTE?IIC
  +--> ?PR?I2CWAITACK?IIC
  +--> ?PR?_I2C_DELAY?IIC

?PR?_I2CSENDACK?IIC             -----    -----      -----    -----
  +--> ?PR?_I2C_DELAY?IIC

?PR?I2CSTOP?IIC                 -----    -----      -----    -----
  +--> ?PR?_I2C_DELAY?IIC

?PR?_INIT_AD?IIC                -----    -----      -----    -----
  +--> ?PR?I2CSTART?IIC
  +--> ?PR?I2CWAITACK?IIC
  +--> ?PR?I2CSTOP?IIC

?PR?KEY_MAINLOOP?MAIN           -----    -----      -----    -----
  +--> ?PR?KEY_PROC?KEY
  +--> ?PR?_W_E2PROM?IIC

?PR?KEY_PROC?KEY                -----    -----      -----    -----
  +--> ?PR?GETKEYBTN?KEY

?PR?_W_E2PROM?IIC               -----    -----      -----    -----
  +--> ?PR?I2CSTART?IIC
  +--> ?PR?_I2CSENDBYTE?IIC
  +--> ?PR?I2CWAITACK?IIC
  +--> ?PR?I2CSTOP?IIC
  +--> ?PR?DELAY5MS?IIC

?PR?STATE_MAINLOOP?MAIN         -----    -----      -----    -----
  +--> ?CO?MAIN
  +--> ?PR?PRINTF?PRINTF
BL51 BANKED LINKER/LOCATER V6.22.4.0                                                  05/30/2024  20:41:36  PAGE 5


  +--> ?PR?DISP_PROC?SMG

?PR?PRINTF?PRINTF               0021H.0  0001H.1    0040H    001CH
  +--> ?PR?PUTCHAR?PUTCHAR

?PR?DISP_PROC?SMG               -----    -----      0040H    0003H
  +--> ?CO?SMG

?PR?WAVE_MAINLOOP?MAIN          -----    -----      -----    -----
  +--> ?PR?READ_D?WAVE

?PR?READ_D?WAVE                 -----    -----      0040H    0001H
  +--> ?PR?_DE?WAVE

?PR?ADC_MAINLOOP?MAIN           -----    -----      0040H    0005H
  +--> ?PR?READ_AD?IIC
  +--> ?PR?_WRITE_DAC?IIC
  +--> ?PR?_ON?CTRL
  +--> ?PR?_OFF?CTRL
  +--> ?PR?_W_E2PROM?IIC

?PR?READ_AD?IIC                 -----    -----      -----    -----
  +--> ?PR?I2CSTART?IIC
  +--> ?PR?I2CRECEIVEBYTE?IIC
  +--> ?PR?_I2CSENDACK?IIC
  +--> ?PR?I2CSTOP?IIC

?PR?_WRITE_DAC?IIC              -----    -----      -----    -----
  +--> ?PR?I2CSTART?IIC
  +--> ?PR?_I2CSENDBYTE?IIC
  +--> ?PR?I2CWAITACK?IIC
  +--> ?PR?I2CSTOP?IIC



SYMBOL TABLE OF MODULE:  .\Objects\J13 (MAIN)

  VALUE           TYPE          NAME
  ----------------------------------

  -------         MODULE        MAIN
  C:0000H         SYMBOL        _ICE_DUMMY_
  B:0020H.2       PUBLIC        L3
  B:0020H.3       PUBLIC        L4
  D:0080H         PUBLIC        P0
  B:0020H.4       PUBLIC        L5
  D:0090H         PUBLIC        P1
  B:0020H.5       PUBLIC        L6
  D:00A0H         PUBLIC        P2
  B:0020H.6       PUBLIC        L7
  D:00B0H         PUBLIC        P3
  B:0020H.7       PUBLIC        L8
  D:00C0H         PUBLIC        P4
  D:00C8H         PUBLIC        P5
  B:00A8H.7       PUBLIC        EA
  D:00E8H         PUBLIC        P6
  D:00F8H         PUBLIC        P7
BL51 BANKED LINKER/LOCATER V6.22.4.0                                                  05/30/2024  20:41:36  PAGE 6


  D:00F9H         PUBLIC        CH
  D:00A8H         PUBLIC        IE
  D:00E9H         PUBLIC        CL
  C:0AD7H         PUBLIC        key_mainloop
  D:00B8H         PUBLIC        IP
  D:00D9H         PUBLIC        CMOD
  D:00D8H         PUBLIC        CCON
  C:151CH         PUBLIC        main
  D:0098H         PUBLIC        SCON
  D:0088H         PUBLIC        TCON
  C:1164H         PUBLIC        main_init
  X:0000H         PUBLIC        cj
  D:0020H         PUBLIC        led_dat
  D:0019H         PUBLIC        run_state
  C:0D88H         PUBLIC        state_mainloop
  C:0C41H         PUBLIC        adc_mainloop
  C:13CFH         PUBLIC        freq_mainloop
  C:1373H         PUBLIC        wave_mainloop
  D:00D0H         PUBLIC        PSW
  C:0FD5H         PUBLIC        led_mainloop
  B:0020H.0       PUBLIC        L1
  B:0020H.1       PUBLIC        L2
  -------         PROC          MAIN
  C:151CH         LINE#         23
  C:151CH         LINE#         24
  C:151CH         LINE#         25
  C:151FH         LINE#         26
  C:1521H         LINE#         27
  C:1521H         LINE#         28
  C:1521H         LINE#         30
  C:1524H         LINE#         31
  C:1527H         LINE#         32
  C:152AH         LINE#         33
  C:152DH         LINE#         34
  C:1530H         LINE#         35
  C:1533H         LINE#         36
  -------         ENDPROC       MAIN
  -------         PROC          MAIN_INIT
  -------         DO            
  D:0007H         SYMBOL        e2p_tep
  -------         ENDDO         
  C:1164H         LINE#         39
  C:1164H         LINE#         40
  C:1164H         LINE#         41
  C:1165H         LINE#         42
  C:116AH         LINE#         43
  C:116DH         LINE#         44
  C:116DH         LINE#         45
  C:1179H         LINE#         46
  C:1182H         LINE#         48
  C:1185H         LINE#         49
  C:118CH         LINE#         50
  C:118FH         LINE#         51
  C:1192H         LINE#         52
  C:1197H         LINE#         54
  C:11A1H         LINE#         56
  C:11A4H         LINE#         58
BL51 BANKED LINKER/LOCATER V6.22.4.0                                                  05/30/2024  20:41:36  PAGE 7


  C:11ABH         LINE#         59
  C:11B1H         LINE#         60
  C:11B6H         LINE#         61
  C:11BAH         LINE#         62
  C:11BFH         LINE#         63
  C:11C5H         LINE#         64
  C:11C8H         LINE#         65
  C:11CAH         LINE#         66
  -------         ENDPROC       MAIN_INIT
  -------         PROC          STATE_MAINLOOP
  C:0D88H         LINE#         68
  C:0D88H         LINE#         69
  C:0D88H         LINE#         70
  C:0D8EH         LINE#         71
  C:0D90H         LINE#         72
  C:0D9AH         LINE#         73
  C:0DBEH         LINE#         74
  C:0DBEH         LINE#         75
  C:0DBEH         LINE#         76
  C:0DC4H         LINE#         77
  C:0DC4H         LINE#         78
  C:0DD7H         LINE#         79
  C:0DDAH         LINE#         80
  C:0DDAH         LINE#         81
  C:0E01H         LINE#         82
  C:0E01H         LINE#         83
  C:0E04H         LINE#         85
  C:0E04H         LINE#         86
  C:0E15H         LINE#         87
  C:0E17H         LINE#         89
  C:0E17H         LINE#         90
  C:0E1DH         LINE#         91
  C:0E1DH         LINE#         92
  C:0E30H         LINE#         93
  C:0E32H         LINE#         94
  C:0E32H         LINE#         95
  C:0E59H         LINE#         96
  C:0E59H         LINE#         97
  C:0E5BH         LINE#         99
  C:0E5BH         LINE#         100
  C:0E82H         LINE#         101
  C:0E84H         LINE#         103
  C:0E84H         LINE#         104
  C:0E96H         LINE#         105
  C:0E98H         LINE#         107
  C:0E98H         LINE#         108
  C:0EC8H         LINE#         109
  C:0EC8H         LINE#         111
  C:0EC8H         LINE#         112
  C:0ECBH         LINE#         113
  -------         ENDPROC       STATE_MAINLOOP
  -------         PROC          KEY_MAINLOOP
  C:0AD7H         LINE#         115
  C:0AD7H         LINE#         116
  C:0AD7H         LINE#         117
  C:0ADDH         LINE#         118
  C:0ADFH         LINE#         119
BL51 BANKED LINKER/LOCATER V6.22.4.0                                                  05/30/2024  20:41:36  PAGE 8


  C:0AE2H         LINE#         121
  C:0AE9H         LINE#         123
  C:0B04H         LINE#         124
  C:0B04H         LINE#         125
  C:0B04H         LINE#         126
  C:0B1BH         LINE#         127
  C:0B1BH         LINE#         128
  C:0B21H         LINE#         129
  C:0B27H         LINE#         130
  C:0B29H         LINE#         132
  C:0B29H         LINE#         133
  C:0B29H         LINE#         134
  C:0B2FH         LINE#         135
  C:0B2FH         LINE#         136
  C:0B2FH         LINE#         138
  C:0B2FH         LINE#         139
  C:0B3FH         LINE#         140
  C:0B3FH         LINE#         141
  C:0B45H         LINE#         142
  C:0B4BH         LINE#         143
  C:0B51H         LINE#         144
  C:0B51H         LINE#         145
  C:0B51H         LINE#         147
  C:0B51H         LINE#         148
  C:0B64H         LINE#         149
  C:0B64H         LINE#         150
  C:0B69H         LINE#         151
  C:0B89H         LINE#         152
  C:0B9BH         LINE#         153
  C:0BC1H         LINE#         154
  C:0BC1H         LINE#         155
  C:0BC1H         LINE#         157
  C:0BC1H         LINE#         158
  C:0BD1H         LINE#         159
  C:0BD1H         LINE#         160
  C:0BD9H         LINE#         161
  C:0BF6H         LINE#         162
  C:0C08H         LINE#         163
  C:0C2BH         LINE#         164
  C:0C2BH         LINE#         165
  C:0C2BH         LINE#         167
  C:0C2BH         LINE#         168
  C:0C31H         LINE#         169
  C:0C31H         LINE#         170
  C:0C3DH         LINE#         171
  C:0C3DH         LINE#         172
  C:0C3DH         LINE#         173
  C:0C3DH         LINE#         174
  C:0C40H         LINE#         175
  -------         ENDPROC       KEY_MAINLOOP
  -------         PROC          ADC_MAINLOOP
  -------         DO            
  B:0023H.0       SYMBOL        f_jdq_on
  D:0040H         SYMBOL        temp
  D:0041H         SYMBOL        tmp
  -------         ENDDO         
  C:0C41H         LINE#         177
BL51 BANKED LINKER/LOCATER V6.22.4.0                                                  05/30/2024  20:41:36  PAGE 9


  C:0C41H         LINE#         178
  C:0C41H         LINE#         181
  C:0C44H         LINE#         182
  C:0C4CH         LINE#         184
  C:0C52H         LINE#         185
  C:0C54H         LINE#         187
  C:0C57H         LINE#         188
  C:0C5CH         LINE#         189
  C:0C72H         LINE#         192
  C:0C7AH         LINE#         193
  C:0C7AH         LINE#         194
  C:0C7CH         LINE#         195
  C:0C92H         LINE#         196
  C:0C92H         LINE#         197
  C:0C94H         LINE#         198
  C:0C97H         LINE#         199
  C:0C97H         LINE#         200
  C:0CFFH         LINE#         201
  C:0D16H         LINE#         202
  C:0D19H         LINE#         203
  C:0D19H         LINE#         206
  C:0D31H         LINE#         207
  C:0D31H         LINE#         208
  C:0D46H         LINE#         209
  C:0D46H         LINE#         210
  C:0D46H         LINE#         211
  C:0D60H         LINE#         212
  C:0D60H         LINE#         213
  C:0D75H         LINE#         214
  C:0D7CH         LINE#         215
  C:0D87H         LINE#         216
  C:0D87H         LINE#         217
  -------         ENDPROC       ADC_MAINLOOP
  -------         PROC          WAVE_MAINLOOP
  C:1373H         LINE#         219
  C:1373H         LINE#         220
  C:1373H         LINE#         221
  C:1376H         LINE#         222
  C:1378H         LINE#         225
  C:1391H         LINE#         226
  C:13A2H         LINE#         227
  -------         ENDPROC       WAVE_MAINLOOP
  -------         PROC          LED_MAINLOOP
  C:0FD5H         LINE#         229
  C:0FD5H         LINE#         230
  C:0FD5H         LINE#         231
  C:0FDBH         LINE#         232
  C:0FDDH         LINE#         234
  C:0FE0H         LINE#         235
  C:0FF8H         LINE#         236
  C:0FF8H         LINE#         237
  C:0FF8H         LINE#         238
  C:0FFAH         LINE#         239
  C:0FFCH         LINE#         241
  C:0FFCH         LINE#         242
  C:0FFEH         LINE#         243
  C:1000H         LINE#         245
BL51 BANKED LINKER/LOCATER V6.22.4.0                                                  05/30/2024  20:41:36  PAGE 10


  C:1000H         LINE#         246
  C:1002H         LINE#         247
  C:1004H         LINE#         249
  C:1004H         LINE#         250
  C:100AH         LINE#         251
  C:100CH         LINE#         253
  C:100CH         LINE#         254
  C:1012H         LINE#         255
  C:1014H         LINE#         257
  C:1014H         LINE#         258
  C:101AH         LINE#         259
  C:101AH         LINE#         260
  C:101AH         LINE#         262
  C:1036H         LINE#         263
  C:1038H         LINE#         265
  C:104BH         LINE#         266
  C:104DH         LINE#         268
  C:1062H         LINE#         269
  C:1064H         LINE#         271
  -------         ENDPROC       LED_MAINLOOP
  -------         PROC          FREQ_MAINLOOP
  C:13CFH         LINE#         273
  C:13CFH         LINE#         274
  C:13CFH         LINE#         275
  C:13D2H         LINE#         276
  C:13D4H         LINE#         278
  C:13F4H         LINE#         279
  C:13F7H         LINE#         280
  -------         ENDPROC       FREQ_MAINLOOP
  -------         ENDMOD        MAIN

  -------         MODULE        KEY
  C:0000H         SYMBOL        _ICE_DUMMY_
  D:0080H         PUBLIC        P0
  D:0090H         PUBLIC        P1
  D:00A0H         PUBLIC        P2
  D:00B0H         PUBLIC        P3
  D:00C0H         PUBLIC        P4
  D:00C8H         PUBLIC        P5
  D:00E8H         PUBLIC        P6
  D:00F8H         PUBLIC        P7
  D:00A8H         PUBLIC        IE
  D:00B8H         PUBLIC        IP
  D:00D8H         PUBLIC        CCON
  B:00B0H.0       PUBLIC        P30
  D:0098H         PUBLIC        SCON
  B:00B0H.1       PUBLIC        P31
  D:0088H         PUBLIC        TCON
  B:00B0H.2       PUBLIC        P32
  B:00C0H.2       PUBLIC        P42
  B:00B0H.3       PUBLIC        P33
  B:00C0H.4       PUBLIC        P44
  D:0018H         PUBLIC        key_code
  C:1535H         PUBLIC        getkeybtn
  C:10F1H         PUBLIC        key_proc
  C:13F8H         PUBLIC        getkey22
  D:00D0H         PUBLIC        PSW
BL51 BANKED LINKER/LOCATER V6.22.4.0                                                  05/30/2024  20:41:36  PAGE 11


  -------         PROC          GETKEYBTN
  -------         DO            
  D:0007H         SYMBOL        tmp
  -------         ENDDO         
  C:1535H         LINE#         5
  C:1535H         LINE#         6
  C:1535H         LINE#         7
  C:1537H         LINE#         9
  C:153CH         LINE#         10
  C:1541H         LINE#         11
  C:1546H         LINE#         12
  C:154BH         LINE#         14
  C:154BH         LINE#         15
  -------         ENDPROC       GETKEYBTN
  -------         PROC          GETKEY22
  -------         DO            
  D:0007H         SYMBOL        key
  -------         ENDDO         
  C:13F8H         LINE#         17
  C:13F8H         LINE#         18
  C:13F8H         LINE#         19
  C:13FAH         LINE#         21
  C:13FEH         LINE#         22
  C:1402H         LINE#         23
  C:1407H         LINE#         24
  C:140CH         LINE#         26
  C:1410H         LINE#         27
  C:1414H         LINE#         28
  C:1419H         LINE#         29
  C:141EH         LINE#         31
  C:141EH         LINE#         32
  -------         ENDPROC       GETKEY22
  -------         PROC          KEY_PROC
  -------         DO            
  D:0014H         SYMBOL        k_state
  D:0015H         SYMBOL        k_tim
  D:0017H         SYMBOL        _key
  D:0007H         SYMBOL        k_tmp
  -------         ENDDO         
  C:10F1H         LINE#         34
  C:10F1H         LINE#         35
  C:10F1H         LINE#         39
  C:10F3H         LINE#         42
  C:10F6H         LINE#         44
  C:110CH         LINE#         45
  C:110CH         LINE#         46
  C:110CH         LINE#         47
  C:110FH         LINE#         48
  C:1112H         LINE#         49
  C:1113H         LINE#         51
  C:1113H         LINE#         52
  C:1116H         LINE#         53
  C:111AH         LINE#         58
  C:111AH         LINE#         59
  C:111DH         LINE#         60
  C:111DH         LINE#         61
  C:111FH         LINE#         62
BL51 BANKED LINKER/LOCATER V6.22.4.0                                                  05/30/2024  20:41:36  PAGE 12


  C:1122H         LINE#         63
  C:1122H         LINE#         64
  C:1125H         LINE#         65
  C:112AH         LINE#         66
  C:112BH         LINE#         67
  C:112BH         LINE#         68
  C:112EH         LINE#         69
  C:112EH         LINE#         70
  C:112FH         LINE#         72
  C:112FH         LINE#         73
  C:1132H         LINE#         74
  C:1132H         LINE#         76
  C:1133H         LINE#         78
  C:1133H         LINE#         79
  C:1136H         LINE#         80
  C:1136H         LINE#         81
  C:1147H         LINE#         82
  C:1147H         LINE#         83
  C:114AH         LINE#         84
  C:114AH         LINE#         85
  C:114BH         LINE#         87
  C:114BH         LINE#         88
  C:114EH         LINE#         89
  C:1151H         LINE#         90
  C:1151H         LINE#         91
  C:1152H         LINE#         93
  C:1152H         LINE#         94
  C:1155H         LINE#         95
  C:1155H         LINE#         96
  C:1157H         LINE#         97
  C:115AH         LINE#         98
  C:115AH         LINE#         99
  C:115BH         LINE#         101
  C:115BH         LINE#         102
  C:115EH         LINE#         103
  C:115EH         LINE#         104
  C:1160H         LINE#         105
  C:1163H         LINE#         106
  C:1163H         LINE#         107
  C:1163H         LINE#         108
  C:1163H         LINE#         109
  -------         ENDPROC       KEY_PROC
  -------         ENDMOD        KEY

  -------         MODULE        SMG
  C:0000H         SYMBOL        _ICE_DUMMY_
  D:0080H         PUBLIC        P0
  D:0090H         PUBLIC        P1
  D:00A0H         PUBLIC        P2
  D:00B0H         PUBLIC        P3
  D:00C0H         PUBLIC        P4
  D:00C8H         PUBLIC        P5
  D:00E8H         PUBLIC        P6
  D:00F8H         PUBLIC        P7
  D:00A8H         PUBLIC        IE
  D:00B8H         PUBLIC        IP
  D:00D8H         PUBLIC        CCON
BL51 BANKED LINKER/LOCATER V6.22.4.0                                                  05/30/2024  20:41:36  PAGE 13


  D:0098H         PUBLIC        SCON
  D:0025H         PUBLIC        dis_blink
  D:0088H         PUBLIC        TCON
  C:12C0H         PUBLIC        disp_scan
  C:15ACH         PUBLIC        smg
  C:0ECCH         PUBLIC        disp_proc
  D:002DH         PUBLIC        dis_buf
  D:00D0H         PUBLIC        PSW
  D:0035H         PUBLIC        dis_str
  -------         PROC          DISP_SCAN
  -------         DO            
  D:0024H         SYMBOL        i
  -------         ENDDO         
  C:12C0H         LINE#         25
  C:12C0H         LINE#         26
  C:12C0H         LINE#         28
  C:12C3H         LINE#         29
  C:12C8H         LINE#         30
  C:12D8H         LINE#         31
  C:12DDH         LINE#         32
  C:12ECH         LINE#         33
  C:12F1H         LINE#         34
  C:12FBH         LINE#         35
  -------         ENDPROC       DISP_SCAN
  -------         PROC          DISP_PROC
  -------         DO            
  D:0040H         SYMBOL        i
  D:0041H         SYMBOL        j
  D:0042H         SYMBOL        tmp
  -------         ENDDO         
  C:0ECCH         LINE#         37
  C:0ECCH         LINE#         38
  C:0ECCH         LINE#         39
  C:0ED3H         LINE#         40
  C:0EDFH         LINE#         41
  C:0EDFH         LINE#         42
  C:0F37H         LINE#         43
  C:0F37H         LINE#         44
  C:0F3CH         LINE#         45
  C:0F41H         LINE#         46
  C:0F46H         LINE#         47
  C:0F4BH         LINE#         48
  C:0F50H         LINE#         49
  C:0F55H         LINE#         50
  C:0F5AH         LINE#         51
  C:0F5FH         LINE#         52
  C:0F64H         LINE#         53
  C:0F69H         LINE#         54
  C:0F6EH         LINE#         55
  C:0F73H         LINE#         56
  C:0F78H         LINE#         57
  C:0F7DH         LINE#         58
  C:0F82H         LINE#         59
  C:0F8BH         LINE#         60
  C:0F8DH         LINE#         61
  C:0F92H         LINE#         62
  C:0F97H         LINE#         63
BL51 BANKED LINKER/LOCATER V6.22.4.0                                                  05/30/2024  20:41:36  PAGE 14


  C:0F9CH         LINE#         64
  C:0FA1H         LINE#         65
  C:0FA6H         LINE#         66
  C:0FABH         LINE#         67
  C:0FB0H         LINE#         68
  C:0FB5H         LINE#         69
  C:0FB8H         LINE#         70
  C:0FB8H         LINE#         71
  C:0FC1H         LINE#         72
  C:0FC1H         LINE#         73
  C:0FC4H         LINE#         74
  C:0FC6H         LINE#         75
  C:0FC6H         LINE#         76
  C:0FCDH         LINE#         77
  C:0FD4H         LINE#         79
  -------         ENDPROC       DISP_PROC
  -------         ENDMOD        SMG

  -------         MODULE        TIME
  C:0000H         SYMBOL        _ICE_DUMMY_
  D:0080H         PUBLIC        P0
  D:0090H         PUBLIC        P1
  D:00A0H         PUBLIC        P2
  D:00B0H         PUBLIC        P3
  D:0010H         PUBLIC        pwm_set
  D:00C0H         PUBLIC        P4
  D:00C8H         PUBLIC        P5
  D:00E8H         PUBLIC        P6
  D:00F8H         PUBLIC        P7
  C:1446H         PUBLIC        ne555_proc
  C:15BCH         PUBLIC        ne555_init
  D:00A8H         PUBLIC        IE
  D:00B8H         PUBLIC        IP
  B:0022H.1       PUBLIC        f_50ms_led
  D:0011H         PUBLIC        f_on
  D:00D8H         PUBLIC        CCON
  C:1576H         PUBLIC        Timer1_Init
  C:15CCH         PUBLIC        Timer2_Init
  D:0098H         PUBLIC        SCON
  B:0022H.2       PUBLIC        f_20ms_key
  D:0089H         PUBLIC        TMOD
  D:0088H         PUBLIC        TCON
  B:0022H.3       PUBLIC        f_100ms_state
  D:00AFH         PUBLIC        IE2
  D:008EH         PUBLIC        AUXR
  B:0022H.4       PUBLIC        f_100ms_adc
  C:001EH         PUBLIC        Timer1_Isr
  C:1338H         PUBLIC        Timer2_Isr
  B:0088H.5       PUBLIC        TF0
  B:00A8H.3       PUBLIC        ET1
  D:0012H         PUBLIC        ping_dat
  B:0088H.7       PUBLIC        TF1
  D:008CH         PUBLIC        TH0
  C:1604H         PUBLIC        led_proc
  D:008DH         PUBLIC        TH1
  D:00D6H         PUBLIC        T2H
  B:0022H.5       PUBLIC        f_100ms_wave
BL51 BANKED LINKER/LOCATER V6.22.4.0                                                  05/30/2024  20:41:36  PAGE 15


  D:008AH         PUBLIC        TL0
  D:008BH         PUBLIC        TL1
  D:00D7H         PUBLIC        T2L
  B:0088H.4       PUBLIC        TR0
  B:0088H.6       PUBLIC        TR1
  C:14CEH         PUBLIC        moto_proc
  C:1224H         PUBLIC        tim_proc
  B:0022H.6       PUBLIC        f_800ms_tem
  B:0022H.7       PUBLIC        f_freq
  D:00D0H         PUBLIC        PSW
  -------         PROC          NE555_INIT
  C:15BCH         LINE#         19
  C:15BCH         LINE#         20
  C:15BCH         LINE#         21
  C:15BFH         LINE#         22
  C:15C2H         LINE#         24
  C:15C5H         LINE#         25
  C:15C7H         LINE#         26
  C:15C9H         LINE#         27
  C:15CBH         LINE#         28
  -------         ENDPROC       NE555_INIT
  -------         PROC          TIMER2_INIT
  C:15CCH         LINE#         30
  C:15CCH         LINE#         31
  C:15CCH         LINE#         32
  C:15CFH         LINE#         33
  C:15D2H         LINE#         34
  C:15D5H         LINE#         35
  C:15D8H         LINE#         36
  C:15DBH         LINE#         37
  -------         ENDPROC       TIMER2_INIT
  -------         PROC          TIMER1_INIT
  C:1576H         LINE#         39
  C:1576H         LINE#         40
  C:1576H         LINE#         41
  C:1579H         LINE#         42
  C:157CH         LINE#         43
  C:157FH         LINE#         44
  C:1582H         LINE#         45
  C:1584H         LINE#         46
  C:1586H         LINE#         47
  C:1588H         LINE#         48
  -------         ENDPROC       TIMER1_INIT
  -------         PROC          TIMER1_ISR
  C:001EH         LINE#         50
  C:003BH         LINE#         52
  C:003EH         LINE#         53
  C:0041H         LINE#         54
  C:0044H         LINE#         55
  -------         ENDPROC       TIMER1_ISR
  -------         PROC          TIMER2_ISR
  C:1338H         LINE#         57
  C:1355H         LINE#         59
  C:1358H         LINE#         60
  -------         ENDPROC       TIMER2_ISR
  -------         PROC          TIM_PROC
  -------         DO            
BL51 BANKED LINKER/LOCATER V6.22.4.0                                                  05/30/2024  20:41:36  PAGE 16


  D:0008H         SYMBOL        cnt_20ms
  D:0009H         SYMBOL        cnt_50ms
  D:000AH         SYMBOL        cnt_100ms
  D:000BH         SYMBOL        cnt_800ms
  -------         ENDDO         
  C:1224H         LINE#         62
  C:1224H         LINE#         63
  C:1224H         LINE#         69
  C:122DH         LINE#         70
  C:122DH         LINE#         71
  C:1232H         LINE#         72
  C:1232H         LINE#         73
  C:123BH         LINE#         74
  C:123BH         LINE#         75
  C:1240H         LINE#         76
  C:1240H         LINE#         77
  C:1249H         LINE#         78
  C:1249H         LINE#         79
  C:1252H         LINE#         80
  C:1255H         LINE#         81
  C:1258H         LINE#         82
  C:125AH         LINE#         83
  C:125AH         LINE#         85
  C:126BH         LINE#         86
  C:126BH         LINE#         87
  C:1272H         LINE#         88
  C:1272H         LINE#         89
  -------         ENDPROC       TIM_PROC
  -------         PROC          LED_PROC
  C:1604H         LINE#         91
  C:1604H         LINE#         92
  C:1604H         LINE#         93
  C:1609H         LINE#         94
  -------         ENDPROC       LED_PROC
  -------         PROC          MOTO_PROC
  -------         DO            
  D:000DH         SYMBOL        _cnt
  -------         ENDDO         
  C:14CEH         LINE#         97
  C:14CEH         LINE#         98
  C:14CEH         LINE#         101
  C:14D8H         LINE#         103
  C:14E1H         LINE#         104
  C:14E4H         LINE#         106
  C:14E7H         LINE#         107
  -------         ENDPROC       MOTO_PROC
  -------         PROC          NE555_PROC
  -------         DO            
  D:000EH         SYMBOL        cnt_1000ms
  -------         ENDDO         
  C:1446H         LINE#         109
  C:1446H         LINE#         110
  C:1446H         LINE#         113
  C:1457H         LINE#         114
  C:1457H         LINE#         115
  C:145CH         LINE#         116
  C:1466H         LINE#         117
BL51 BANKED LINKER/LOCATER V6.22.4.0                                                  05/30/2024  20:41:36  PAGE 17


  C:146BH         LINE#         118
  C:146BH         LINE#         119
  -------         ENDPROC       NE555_PROC
  -------         ENDMOD        TIME

  -------         MODULE        IIC
  C:0000H         SYMBOL        _ICE_DUMMY_
  D:0080H         PUBLIC        P0
  D:0090H         PUBLIC        P1
  D:00A0H         PUBLIC        P2
  D:00B0H         PUBLIC        P3
  D:00C0H         PUBLIC        P4
  D:00C8H         PUBLIC        P5
  D:00E8H         PUBLIC        P6
  D:00F8H         PUBLIC        P7
  C:1618H         PUBLIC        Delay5ms
  D:00A8H         PUBLIC        IE
  C:14ECH         SYMBOL        _I2C_Delay
  D:00B8H         PUBLIC        IP
  C:1472H         PUBLIC        I2CReceiveByte
  D:00D8H         PUBLIC        CCON
  C:148FH         PUBLIC        _r_e2prom
  C:1502H         PUBLIC        _w_e2prom
  D:0098H         PUBLIC        SCON
  D:0088H         PUBLIC        TCON
  C:1561H         PUBLIC        _write_dac
  B:00A0H.1       PUBLIC        sda
  B:00A0H.0       PUBLIC        scl
  C:154CH         PUBLIC        read_ad
  C:15DCH         PUBLIC        I2CStart
  C:0003H         PUBLIC        _I2CSendAck
  C:15EBH         PUBLIC        _init_ad
  C:13A3H         PUBLIC        _I2CSendByte
  C:14BCH         PUBLIC        I2CWaitAck
  C:15F8H         PUBLIC        I2CStop
  D:00D0H         PUBLIC        PSW
  C:14E8H         SYMBOL        L?0034
  -------         PROC          L?0033
  -------         ENDPROC       L?0033
  C:14E8H         SYMBOL        L?0034
  -------         PROC          _I2C_DELAY
  D:0007H         SYMBOL        n
  C:14ECH         LINE#         10
  C:14ECH         LINE#         11
  C:14ECH         LINE#         13
  C:14ECH         LINE#         14
  C:14F1H         LINE#         15
  C:14F6H         LINE#         16
  C:14FBH         LINE#         17
  C:14FBH         LINE#         18
  C:1501H         LINE#         19
  -------         ENDPROC       _I2C_DELAY
  -------         PROC          I2CSTART
  C:15DCH         LINE#         22
  C:15DCH         LINE#         23
  C:15DCH         LINE#         24
  C:15DEH         LINE#         25
BL51 BANKED LINKER/LOCATER V6.22.4.0                                                  05/30/2024  20:41:36  PAGE 18


  C:15DEH         LINE#         26
  C:15E1H         LINE#         27
  C:15E3H         LINE#         28
  C:15E8H         LINE#         29
  C:15EAH         LINE#         30
  -------         ENDPROC       I2CSTART
  -------         PROC          I2CSTOP
  C:15F8H         LINE#         33
  C:15F8H         LINE#         34
  C:15F8H         LINE#         35
  C:15FAH         LINE#         36
  C:15FAH         LINE#         37
  C:15FDH         LINE#         38
  C:15FFH         LINE#         39
  -------         ENDPROC       I2CSTOP
  -------         PROC          _I2CSENDBYTE
  D:0005H         SYMBOL        byt
  -------         DO            
  D:0004H         SYMBOL        i
  -------         ENDDO         
  C:13A3H         LINE#         43
  C:13A5H         LINE#         44
  C:13A5H         LINE#         47
  C:13A7H         LINE#         48
  C:13A9H         LINE#         49
  C:13AEH         LINE#         50
  C:13B2H         LINE#         51
  C:13B4H         LINE#         52
  C:13B6H         LINE#         53
  C:13B6H         LINE#         54
  C:13B8H         LINE#         55
  C:13B8H         LINE#         56
  C:13BDH         LINE#         57
  C:13BFH         LINE#         58
  C:13C3H         LINE#         59
  C:13C8H         LINE#         60
  C:13CCH         LINE#         62
  C:13CEH         LINE#         63
  -------         ENDPROC       _I2CSENDBYTE
  -------         PROC          L?0035
  -------         ENDPROC       L?0035
  -------         PROC          I2CRECEIVEBYTE
  -------         DO            
  D:0005H         SYMBOL        da
  D:0004H         SYMBOL        i
  -------         ENDDO         
  C:1472H         LINE#         66
  C:1472H         LINE#         67
  C:1472H         LINE#         70
  C:1474H         LINE#         71
  C:1474H         LINE#         72
  C:1477H         LINE#         73
  C:147BH         LINE#         74
  C:147EH         LINE#         75
  C:1481H         LINE#         76
  C:1483H         LINE#         77
  C:1488H         LINE#         78
BL51 BANKED LINKER/LOCATER V6.22.4.0                                                  05/30/2024  20:41:36  PAGE 19


  C:148CH         LINE#         79
  C:148EH         LINE#         80
  -------         ENDPROC       I2CRECEIVEBYTE
  C:14B1H         SYMBOL        L?0032
  -------         PROC          L?0031
  -------         ENDPROC       L?0031
  C:14B1H         SYMBOL        L?0032
  -------         PROC          I2CWAITACK
  -------         DO            
  D:0005H         SYMBOL        ackbit
  -------         ENDDO         
  C:14BCH         LINE#         83
  C:14BCH         LINE#         84
  C:14BCH         LINE#         87
  C:14BCH         LINE#         88
  C:14BFH         LINE#         89
  C:14C4H         LINE#         90
  C:14C6H         LINE#         91
  C:14CBH         LINE#         93
  C:14CDH         LINE#         94
  -------         ENDPROC       I2CWAITACK
  -------         PROC          _I2CSENDACK
  D:0007H         SYMBOL        ackbit
  C:0003H         LINE#         97
  C:0003H         LINE#         98
  C:0003H         LINE#         99
  C:0005H         LINE#         100
  C:000AH         LINE#         101
  C:000FH         LINE#         102
  C:000FH         LINE#         103
  C:0012H         LINE#         104
  C:0014H         LINE#         105
  C:0016H         LINE#         106
  -------         ENDPROC       _I2CSENDACK
  -------         PROC          _INIT_AD
  D:0003H         SYMBOL        add
  C:15EBH         LINE#         109
  C:15EDH         LINE#         110
  C:15EDH         LINE#         111
  C:15F0H         LINE#         112
  C:15F2H         LINE#         113
  C:15F2H         LINE#         114
  C:15F2H         LINE#         115
  C:15F5H         LINE#         116
  -------         ENDPROC       _INIT_AD
  -------         PROC          READ_AD
  -------         DO            
  D:0005H         SYMBOL        dat
  -------         ENDDO         
  C:154CH         LINE#         119
  C:154CH         LINE#         120
  C:154CH         LINE#         122
  C:154FH         LINE#         123
  C:1551H         LINE#         124
  C:1551H         LINE#         125
  C:1556H         LINE#         126
  C:155BH         LINE#         127
BL51 BANKED LINKER/LOCATER V6.22.4.0                                                  05/30/2024  20:41:36  PAGE 20


  C:155EH         LINE#         129
  C:1560H         LINE#         130
  -------         ENDPROC       READ_AD
  -------         PROC          _WRITE_DAC
  D:0003H         SYMBOL        add
  C:1561H         LINE#         132
  C:1563H         LINE#         133
  C:1563H         LINE#         134
  C:1566H         LINE#         135
  C:156BH         LINE#         136
  C:156EH         LINE#         137
  C:1570H         LINE#         138
  C:1570H         LINE#         139
  C:1570H         LINE#         140
  C:1573H         LINE#         141
  -------         ENDPROC       _WRITE_DAC
  -------         PROC          _W_E2PROM
  D:0002H         SYMBOL        add
  D:0003H         SYMBOL        val
  C:1502H         LINE#         144
  C:1506H         LINE#         145
  C:1506H         LINE#         146
  C:1509H         LINE#         147
  C:150EH         LINE#         148
  C:1511H         LINE#         149
  C:1513H         LINE#         150
  C:1513H         LINE#         151
  C:1513H         LINE#         152
  C:1516H         LINE#         153
  C:1519H         LINE#         154
  -------         ENDPROC       _W_E2PROM
  -------         PROC          _R_E2PROM
  D:0003H         SYMBOL        add
  -------         DO            
  D:0040H         SYMBOL        dat
  -------         ENDDO         
  C:148FH         LINE#         157
  C:1491H         LINE#         158
  C:1491H         LINE#         161
  C:1494H         LINE#         162
  C:1496H         LINE#         163
  C:1496H         LINE#         164
  C:1496H         LINE#         165
  C:1499H         LINE#         168
  C:149CH         LINE#         169
  C:149EH         LINE#         170
  C:149EH         LINE#         171
  C:14A3H         LINE#         172
  C:14A8H         LINE#         173
  C:14ABH         LINE#         174
  C:14AEH         LINE#         175
  C:14B0H         LINE#         176
  -------         ENDPROC       _R_E2PROM
  -------         PROC          DELAY5MS
  -------         DO            
  D:0007H         SYMBOL        i
  D:0006H         SYMBOL        j
BL51 BANKED LINKER/LOCATER V6.22.4.0                                                  05/30/2024  20:41:36  PAGE 21


  -------         ENDDO         
  C:1618H         LINE#         178
  C:1618H         LINE#         179
  C:1618H         LINE#         182
  C:161AH         LINE#         183
  C:161CH         LINE#         185
  C:161CH         LINE#         186
  C:161EH         LINE#         187
  C:1620H         LINE#         188
  -------         ENDPROC       DELAY5MS
  -------         ENDMOD        IIC

  -------         MODULE        CTRL
  C:0000H         SYMBOL        _ICE_DUMMY_
  D:0080H         PUBLIC        P0
  D:0090H         PUBLIC        P1
  D:00A0H         PUBLIC        P2
  D:00B0H         PUBLIC        P3
  D:00C0H         PUBLIC        P4
  D:00C8H         PUBLIC        P5
  D:00E8H         PUBLIC        P6
  D:00F8H         PUBLIC        P7
  D:00A8H         PUBLIC        IE
  D:00B8H         PUBLIC        IP
  C:160EH         PUBLIC        _gate
  D:00D8H         PUBLIC        CCON
  D:0098H         PUBLIC        SCON
  D:0088H         PUBLIC        TCON
  D:001AH         PUBLIC        ctrl
  C:1589H         PUBLIC        _off
  C:159BH         PUBLIC        _on
  D:00D0H         PUBLIC        PSW
  -------         PROC          _GATE
  D:0007H         SYMBOL        a
  C:160EH         LINE#         4
  C:160EH         LINE#         5
  C:160EH         LINE#         6
  C:1611H         LINE#         7
  C:1614H         LINE#         8
  C:1617H         LINE#         9
  -------         ENDPROC       _GATE
  -------         PROC          _ON
  D:0007H         SYMBOL        a
  C:159BH         LINE#         11
  C:159BH         LINE#         12
  C:159BH         LINE#         13
  C:15A0H         LINE#         14
  C:15A3H         LINE#         15
  C:15A6H         LINE#         16
  C:15ABH         LINE#         18
  -------         ENDPROC       _ON
  -------         PROC          _OFF
  D:0007H         SYMBOL        a
  C:1589H         LINE#         20
  C:1589H         LINE#         21
  C:1589H         LINE#         22
  C:158EH         LINE#         23
BL51 BANKED LINKER/LOCATER V6.22.4.0                                                  05/30/2024  20:41:36  PAGE 22


  C:1592H         LINE#         24
  C:1595H         LINE#         25
  C:159AH         LINE#         27
  -------         ENDPROC       _OFF
  -------         ENDMOD        CTRL

  -------         MODULE        WAVE
  C:0000H         SYMBOL        _ICE_DUMMY_
  D:0080H         PUBLIC        P0
  D:0090H         PUBLIC        P1
  D:00A0H         PUBLIC        P2
  D:00B0H         PUBLIC        P3
  D:00C0H         PUBLIC        P4
  D:00C8H         PUBLIC        P5
  D:00E8H         PUBLIC        P6
  D:00F8H         PUBLIC        P7
  D:00F9H         PUBLIC        CH
  D:00A8H         PUBLIC        IE
  D:00E9H         PUBLIC        CL
  B:00D8H.6       PUBLIC        CR
  D:00B8H         PUBLIC        IP
  D:00D8H         PUBLIC        CCON
  B:0090H.1       PUBLIC        RX
  B:0090H.0       PUBLIC        TX
  D:0098H         PUBLIC        SCON
  D:0088H         PUBLIC        TCON
  C:1621H         PUBLIC        _de
  C:12FCH         PUBLIC        read_d
  D:00D0H         PUBLIC        PSW
  -------         PROC          READ_D
  -------         DO            
  D:0006H         SYMBOL        d
  D:0040H         SYMBOL        num
  -------         ENDDO         
  C:12FCH         LINE#         3
  C:12FCH         LINE#         4
  C:12FCH         LINE#         6
  C:12FFH         LINE#         8
  C:1301H         LINE#         9
  C:1308H         LINE#         10
  C:1308H         LINE#         11
  C:130DH         LINE#         12
  C:130FH         LINE#         13
  C:1311H         LINE#         14
  C:1316H         LINE#         15
  C:1318H         LINE#         16
  C:1322H         LINE#         18
  C:1324H         LINE#         20
  C:1331H         LINE#         21
  -------         ENDPROC       READ_D
  -------         PROC          _DE
  D:0007H         SYMBOL        a
  C:1621H         LINE#         24
  C:1621H         LINE#         25
  C:1621H         LINE#         26
  C:1627H         LINE#         27
  -------         ENDPROC       _DE
BL51 BANKED LINKER/LOCATER V6.22.4.0                                                  05/30/2024  20:41:36  PAGE 23


  -------         ENDMOD        WAVE

  -------         MODULE        ?C?FPADD
  C:006DH         PUBLIC        ?C?FPADD
  C:0069H         PUBLIC        ?C?FPSUB
  -------         ENDMOD        ?C?FPADD

  -------         MODULE        ?C?FPMUL
  C:015EH         PUBLIC        ?C?FPMUL
  -------         ENDMOD        ?C?FPMUL

  -------         MODULE        ?C?FPDIV
  C:0267H         PUBLIC        ?C?FPDIV
  -------         ENDMOD        ?C?FPDIV

  -------         MODULE        ?C?FCAST
  C:030EH         PUBLIC        ?C?FCASTC
  C:0309H         PUBLIC        ?C?FCASTI
  C:0304H         PUBLIC        ?C?FCASTL
  -------         ENDMOD        ?C?FCAST

  -------         MODULE        ?C?CASTF
  C:0342H         PUBLIC        ?C?CASTF
  -------         ENDMOD        ?C?CASTF

  -------         MODULE        PRINTF
  D:0040H         PUBLIC        ?_PRINTF?BYTE
  D:0040H         PUBLIC        ?_SPRINTF?BYTE
  C:06CAH         PUBLIC        _PRINTF
  C:06C4H         PUBLIC        _SPRINTF
  -------         ENDMOD        PRINTF

  -------         MODULE        ?C?FPROUND
  C:03C3H         PUBLIC        ?C?FPROUND
  -------         ENDMOD        ?C?FPROUND

  -------         MODULE        ?C?FPCONVERT
  C:03F2H         PUBLIC        ?C?FPCONVERT
  -------         ENDMOD        ?C?FPCONVERT

  -------         MODULE        ?C?FTNPWR
  C:0525H         PUBLIC        ?C?FTNPWR
  -------         ENDMOD        ?C?FTNPWR

  -------         MODULE        ?C?CLDPTR
  C:0565H         PUBLIC        ?C?CLDPTR
  -------         ENDMOD        ?C?CLDPTR

  -------         MODULE        ?C?CLDOPTR
  C:057EH         PUBLIC        ?C?CLDOPTR
  -------         ENDMOD        ?C?CLDOPTR

  -------         MODULE        ?C?CSTPTR
  C:05ABH         PUBLIC        ?C?CSTPTR
  -------         ENDMOD        ?C?CSTPTR

  -------         MODULE        ?C?IMUL
BL51 BANKED LINKER/LOCATER V6.22.4.0                                                  05/30/2024  20:41:36  PAGE 24


  C:05BDH         PUBLIC        ?C?IMUL
  -------         ENDMOD        ?C?IMUL

  -------         MODULE        ?C?UIDIV
  C:05CFH         PUBLIC        ?C?UIDIV
  -------         ENDMOD        ?C?UIDIV

  -------         MODULE        ?C?LNEG
  C:0624H         PUBLIC        ?C?LNEG
  -------         ENDMOD        ?C?LNEG

  -------         MODULE        ?C?PLDIIDATA
  C:0632H         PUBLIC        ?C?PLDIIDATA
  -------         ENDMOD        ?C?PLDIIDATA

  -------         MODULE        ?C?CCASE
  C:0642H         PUBLIC        ?C?CCASE
  -------         ENDMOD        ?C?CCASE

  -------         MODULE        PUTCHAR
  C:141FH         PUBLIC        _PUTCHAR
  -------         ENDMOD        PUTCHAR

Program Size: data=87.1 xdata=15 code=5668
LINK/LOCATE RUN COMPLETE.  0 WARNING(S),  0 ERROR(S)
