BL51 BANKED LINKER/LOCATER V6.22.4.0                                                    04/07/2024  20:31:46  PAGE 1


BL51 BANKED LINKER/LOCATER V6.22.4.0, INVOKED BY:
D:\KEILC51\C51\C51\BIN\BL51.EXE .\Objects\ctrl.obj, .\Objects\iic.obj, .\Objects\key.obj, .\Objects\main.obj, .\Objects\
>> onewire.obj, .\Objects\smg.obj, .\Objects\time.obj, .\Objects\ds1302.obj TO .\Objects\S13 PRINT (.\Listings\S13.m51) 
>> RAMSIZE (256) DISABLEWARNING (16)


MEMORY MODEL: SMALL WITH FLOATING POINT ARITHMETIC


INPUT MODULES INCLUDED:
  .\Objects\ctrl.obj (CTRL)
  .\Objects\iic.obj (IIC)
  .\Objects\key.obj (KEY)
  .\Objects\main.obj (MAIN)
  .\Objects\onewire.obj (ONEWIRE)
  .\Objects\smg.obj (SMG)
  .\Objects\time.obj (TIME)
  .\Objects\ds1302.obj (DS1302)
  D:\KEILC51\C51\C51\LIB\C51FPS.LIB (?C?FPMUL)
  D:\KEILC51\C51\C51\LIB\C51FPS.LIB (?C?FPCMP)
  D:\KEILC51\C51\C51\LIB\C51FPS.LIB (?C?FCAST)
  D:\KEILC51\C51\C51\LIB\C51FPS.LIB (PRINTF)
  D:\KEILC51\C51\C51\LIB\C51FPS.LIB (?C?FPGETOPN)
  D:\KEILC51\C51\C51\LIB\C51FPS.LIB (?C?FPROUND)
  D:\KEILC51\C51\C51\LIB\C51FPS.LIB (?C?FPCONVERT)
  D:\KEILC51\C51\C51\LIB\C51FPS.LIB (?C?FPADD)
  D:\KEILC51\C51\C51\LIB\C51FPS.LIB (?C?FPDIV)
  D:\KEILC51\C51\C51\LIB\C51FPS.LIB (?C?FTNPWR)
  D:\KEILC51\C51\C51\LIB\C51S.LIB (?C_STARTUP)
  D:\KEILC51\C51\C51\LIB\C51S.LIB (?C?CLDPTR)
  D:\KEILC51\C51\C51\LIB\C51S.LIB (?C?CLDOPTR)
  D:\KEILC51\C51\C51\LIB\C51S.LIB (?C?CSTPTR)
  D:\KEILC51\C51\C51\LIB\C51S.LIB (?C?LNEG)
  D:\KEILC51\C51\C51\LIB\C51S.LIB (?C?LSTXDATA)
  D:\KEILC51\C51\C51\LIB\C51S.LIB (?C?LSTKXDATA)
  D:\KEILC51\C51\C51\LIB\C51S.LIB (?C?PLDIIDATA)
  D:\KEILC51\C51\C51\LIB\C51S.LIB (?C?CCASE)
  D:\KEILC51\C51\C51\LIB\C51S.LIB (PUTCHAR)
  D:\KEILC51\C51\C51\LIB\C51S.LIB (?C_INIT)


LINK MAP OF MODULE:  .\Objects\S13 (CTRL)


            TYPE    BASE      LENGTH    RELOCATION   SEGMENT NAME
            -----------------------------------------------------

            * * * * * * *   D A T A   M E M O R Y   * * * * * * *
            REG     0000H     0008H     ABSOLUTE     "REG BANK 0"
            DATA    0008H     0006H     UNIT         ?DT?TIME
            DATA    000EH     0004H     UNIT         ?DT?MAIN
            DATA    0012H     0003H     UNIT         ?DT?DISP_TRAN?SMG
            DATA    0015H     0002H     UNIT         ?DT?KEY
            DATA    0017H     0002H     UNIT         ?DT?RTC_MAINLOOP?MAIN
            DATA    0019H     0001H     UNIT         ?DT?CTRL
            DATA    001AH     0001H     UNIT         ?DT?KEY_MAINLOOP?MAIN
                    001BH     0005H                  *** GAP ***
            DATA    0020H     0001H     BIT_ADDR     ?BA?MAIN
BL51 BANKED LINKER/LOCATER V6.22.4.0                                                  04/07/2024  20:31:46  PAGE 2


            BIT     0021H.0   0001H.1   UNIT         ?BI?PRINTF?PRINTF
            BIT     0022H.1   0000H.7   UNIT         ?BI?TIME
            BIT     0023H.0   0000H.1   UNIT         ?BI?MAIN
            BIT     0023H.1   0000H.1   UNIT         _BIT_GROUP_
                    0023H.2   0000H.6                *** GAP ***
            DATA    0024H     001CH     UNIT         ?DT?SMG
            DATA    0040H     001CH     UNIT         ?DT?PRINTF?PRINTF
            IDATA   005CH     0001H     UNIT         ?STACK

            * * * * * * *  X D A T A   M E M O R Y  * * * * * * *
            XDATA   0000H     000AH     UNIT         ?XD?MAIN

            * * * * * * *   C O D E   M E M O R Y   * * * * * * *
            CODE    0000H     0003H     ABSOLUTE     
            CODE    0003H     0018H     UNIT         ?PR?_I2CSENDACK?IIC
            CODE    001BH     0003H     ABSOLUTE     
            CODE    001EH     061AH     UNIT         ?C?LIB_CODE
            CODE    0638H     046FH     UNIT         ?PR?PRINTF?PRINTF
            CODE    0AA7H     010AH     UNIT         ?PR?DISP_TRAN?SMG
            CODE    0BB1H     009BH     UNIT         ?PR?KEY_MAINLOOP?MAIN
            CODE    0C4CH     008CH     UNIT         ?C_C51STARTUP
            CODE    0CD8H     007CH     UNIT         ?PR?STATE_MAINLOOP?MAIN
            CODE    0D54H     0065H     UNIT         ?PR?MODE_PROC?MAIN
            CODE    0DB9H     0055H     UNIT         ?PR?RTC_MAINLOOP?MAIN
            CODE    0E0EH     0053H     UNIT         ?PR?TIMFLAG_PROC?TIME
            CODE    0E61H     004EH     UNIT         ?C_INITSEG
            CODE    0EAFH     0046H     UNIT         ?PR?MAIN_INIT?MAIN
            CODE    0EF5H     003EH     UNIT         ?PR?KEY_PROC?KEY
            CODE    0F33H     003EH     UNIT         ?PR?PIT1?TIME
            CODE    0F71H     003CH     UNIT         ?PR?DISP_SCAN?SMG
            CODE    0FADH     0039H     UNIT         ?PR?DS1302_INIT?DS1302
            CODE    0FE6H     0034H     UNIT         ?PR?_READ_DS1302_BYTE?DS1302
            CODE    101AH     002FH     UNIT         ?PR?GETKEY22?KEY
            CODE    1049H     002DH     UNIT         ?PR?LED_MAINLOOP?MAIN
            CODE    1076H     002CH     UNIT         ?PR?_I2CSENDBYTE?IIC
            CODE    10A2H     0027H     UNIT         ?PR?INIT_DS18B20?ONEWIRE
            CODE    10C9H     0027H     UNIT         ?PR?_DS1302_RUN?DS1302
            CODE    10F0H     0027H     UNIT         ?PR?PUTCHAR?PUTCHAR
            CODE    1117H     0026H     UNIT         ?CO?MAIN
            CODE    113DH     0024H     UNIT         ?PR?TEMPER_MAINLOOP?MAIN
            CODE    1161H     0020H     UNIT         ?PR?READ_TEM16?ONEWIRE
            CODE    1181H     001EH     UNIT         ?PR?_WRITE_DS18B20?ONEWIRE
            CODE    119FH     001DH     UNIT         ?PR?I2CRECEIVEBYTE?IIC
            CODE    11BCH     001DH     UNIT         ?PR?I2CWAITACK?IIC
            CODE    11D9H     001CH     UNIT         ?PR?I2CSTOP?IIC
            CODE    11F5H     001AH     UNIT         ?PR?_I2C_DELAY?IIC
            CODE    120FH     001AH     UNIT         ?PR?_DELAY_ONEWIRE?ONEWIRE
            CODE    1229H     001AH     UNIT         ?PR?READ_DS18B20?ONEWIRE
            CODE    1243H     0019H     UNIT         ?CO?SMG
            CODE    125CH     0017H     UNIT         ?PR?_WRITE_E2PROM?IIC
            CODE    1273H     0015H     UNIT         ?PR?_WRITE_DAC?IIC
            CODE    1288H     0015H     UNIT         ?PR?_READ_E2PROM?IIC
            CODE    129DH     0014H     UNIT         ?PR?_WRITE_DS1302_BYTE?DS1302
            CODE    12B1H     0013H     UNIT         ?PR?TIMER1_INIT?TIME
            CODE    12C4H     0013H     UNIT         ?PR?_WRITE_DS1302?DS1302
            CODE    12D7H     0012H     UNIT         ?PR?_OFF?CTRL
            CODE    12E9H     0011H     UNIT         ?PR?_ON?CTRL
BL51 BANKED LINKER/LOCATER V6.22.4.0                                                  04/07/2024  20:31:46  PAGE 3


            CODE    12FAH     000FH     UNIT         ?PR?I2CSTART?IIC
            CODE    1309H     000DH     UNIT         ?PR?_INIT_ADC?IIC
            CODE    1316H     000DH     UNIT         ?PR?START_DS18B20?ONEWIRE
            CODE    1323H     000BH     UNIT         ?PR?READ_ADC?IIC
            CODE    132EH     000AH     UNIT         ?PR?_GATE?CTRL
            CODE    1338H     0009H     UNIT         ?PR?DELAY5MS?MAIN
            CODE    1341H     0007H     UNIT         ?PR?MAIN?MAIN



OVERLAY MAP OF MODULE:   .\Objects\S13 (CTRL)


SEGMENT                                  BIT_GROUP 
  +--> CALLED SEGMENT                 START    LENGTH
-----------------------------------------------------
?PR?PIT1?TIME                         -----    -----
  +--> ?PR?DISP_SCAN?SMG
  +--> ?PR?TIMFLAG_PROC?TIME

?PR?DISP_SCAN?SMG                     -----    -----
  +--> ?PR?_GATE?CTRL

*** NEW ROOT ***************************************************

?C_C51STARTUP                         -----    -----
  +--> ?PR?MAIN?MAIN
  +--> ?C_INITSEG

?PR?MAIN?MAIN                         -----    -----
  +--> ?PR?MAIN_INIT?MAIN

?PR?MAIN_INIT?MAIN                    -----    -----
  +--> ?PR?_OFF?CTRL
  +--> ?PR?TIMER1_INIT?TIME
  +--> ?PR?DS1302_INIT?DS1302
  +--> ?PR?_DS1302_RUN?DS1302
  +--> ?PR?START_DS18B20?ONEWIRE
  +--> ?PR?DELAY5MS?MAIN

?PR?_OFF?CTRL                         -----    -----
  +--> ?PR?_GATE?CTRL

?PR?DS1302_INIT?DS1302                -----    -----
  +--> ?PR?_WRITE_DS1302_BYTE?DS1302

?PR?_WRITE_DS1302_BYTE?DS1302         -----    -----
  +--> ?PR?_WRITE_DS1302?DS1302

?PR?_DS1302_RUN?DS1302                -----    -----
  +--> ?PR?_WRITE_DS1302_BYTE?DS1302

?PR?START_DS18B20?ONEWIRE             -----    -----
  +--> ?PR?INIT_DS18B20?ONEWIRE
  +--> ?PR?_WRITE_DS18B20?ONEWIRE

?PR?INIT_DS18B20?ONEWIRE              0023H.1  0000H.1
BL51 BANKED LINKER/LOCATER V6.22.4.0                                                  04/07/2024  20:31:46  PAGE 4


  +--> ?PR?_DELAY_ONEWIRE?ONEWIRE

?PR?_WRITE_DS18B20?ONEWIRE            -----    -----
  +--> ?PR?_DELAY_ONEWIRE?ONEWIRE



SYMBOL TABLE OF MODULE:  .\Objects\S13 (CTRL)

  VALUE           TYPE          NAME
  ----------------------------------

  -------         MODULE        CTRL
  C:0000H         SYMBOL        _ICE_DUMMY_
  D:0080H         PUBLIC        P0
  D:0090H         PUBLIC        P1
  D:00A0H         PUBLIC        P2
  D:00B0H         PUBLIC        P3
  D:00C0H         PUBLIC        P4
  D:00C8H         PUBLIC        P5
  D:00E8H         PUBLIC        P6
  D:00F8H         PUBLIC        P7
  D:00A8H         PUBLIC        IE
  D:00B8H         PUBLIC        IP
  C:132EH         PUBLIC        _gate
  D:00D8H         PUBLIC        CCON
  D:0098H         PUBLIC        SCON
  D:0088H         PUBLIC        TCON
  C:12D7H         PUBLIC        _off
  C:12E9H         PUBLIC        _on
  D:0019H         PUBLIC        ctr_dat
  D:00D0H         PUBLIC        PSW
  -------         PROC          _GATE
  D:0007H         SYMBOL        a
  C:132EH         LINE#         3
  C:132EH         LINE#         4
  C:132EH         LINE#         5
  C:1331H         LINE#         6
  C:1334H         LINE#         7
  C:1337H         LINE#         8
  -------         ENDPROC       _GATE
  -------         PROC          _ON
  D:0007H         SYMBOL        a
  C:12E9H         LINE#         9
  C:12E9H         LINE#         10
  C:12E9H         LINE#         11
  C:12EEH         LINE#         13
  C:12F1H         LINE#         14
  C:12F4H         LINE#         15
  C:12F9H         LINE#         16
  -------         ENDPROC       _ON
  -------         PROC          _OFF
  D:0007H         SYMBOL        a
  C:12D7H         LINE#         17
  C:12D7H         LINE#         18
  C:12D7H         LINE#         19
  C:12DCH         LINE#         21
BL51 BANKED LINKER/LOCATER V6.22.4.0                                                  04/07/2024  20:31:46  PAGE 5


  C:12E0H         LINE#         22
  C:12E3H         LINE#         23
  C:12E8H         LINE#         24
  -------         ENDPROC       _OFF
  -------         ENDMOD        CTRL

  -------         MODULE        IIC
  C:0000H         SYMBOL        _ICE_DUMMY_
  D:0080H         PUBLIC        P0
  D:0090H         PUBLIC        P1
  D:00A0H         PUBLIC        P2
  D:00B0H         PUBLIC        P3
  D:00C0H         PUBLIC        P4
  D:00C8H         PUBLIC        P5
  D:00E8H         PUBLIC        P6
  D:00F8H         PUBLIC        P7
  D:00A8H         PUBLIC        IE
  C:11F9H         SYMBOL        _I2C_Delay
  D:00B8H         PUBLIC        IP
  C:119FH         PUBLIC        I2CReceiveByte
  D:00D8H         PUBLIC        CCON
  C:1323H         PUBLIC        read_adc
  D:0098H         PUBLIC        SCON
  D:0088H         PUBLIC        TCON
  C:1273H         PUBLIC        _write_dac
  B:00A0H.1       PUBLIC        sda
  C:1309H         PUBLIC        _init_adc
  B:00A0H.0       PUBLIC        scl
  C:12FAH         PUBLIC        I2CStart
  C:1288H         PUBLIC        _read_e2prom
  C:0003H         PUBLIC        _I2CSendAck
  C:1076H         PUBLIC        _I2CSendByte
  C:11C7H         PUBLIC        I2CWaitAck
  C:11E9H         PUBLIC        I2CStop
  C:125CH         PUBLIC        _write_e2prom
  D:00D0H         PUBLIC        PSW
  C:11F5H         SYMBOL        L?0028
  -------         PROC          L?0027
  -------         ENDPROC       L?0027
  C:11F5H         SYMBOL        L?0028
  -------         PROC          _I2C_DELAY
  D:0007H         SYMBOL        n
  C:11F9H         LINE#         10
  C:11F9H         LINE#         11
  C:11F9H         LINE#         13
  C:11F9H         LINE#         14
  C:11FEH         LINE#         15
  C:1203H         LINE#         16
  C:1208H         LINE#         17
  C:1208H         LINE#         18
  C:120EH         LINE#         19
  -------         ENDPROC       _I2C_DELAY
  -------         PROC          I2CSTART
  C:12FAH         LINE#         22
  C:12FAH         LINE#         23
  C:12FAH         LINE#         24
  C:12FCH         LINE#         25
BL51 BANKED LINKER/LOCATER V6.22.4.0                                                  04/07/2024  20:31:46  PAGE 6


  C:12FCH         LINE#         26
  C:12FFH         LINE#         27
  C:1301H         LINE#         28
  C:1306H         LINE#         29
  C:1308H         LINE#         30
  -------         ENDPROC       I2CSTART
  -------         PROC          L?0029
  -------         ENDPROC       L?0029
  -------         PROC          I2CSTOP
  C:11E9H         LINE#         33
  C:11E9H         LINE#         34
  C:11E9H         LINE#         35
  C:11EBH         LINE#         36
  C:11EBH         LINE#         37
  C:11EEH         LINE#         38
  C:11F0H         LINE#         39
  -------         ENDPROC       I2CSTOP
  -------         PROC          _I2CSENDBYTE
  D:0005H         SYMBOL        byt
  -------         DO            
  D:0004H         SYMBOL        i
  -------         ENDDO         
  C:1076H         LINE#         43
  C:1078H         LINE#         44
  C:1078H         LINE#         47
  C:107AH         LINE#         48
  C:107AH         LINE#         49
  C:107CH         LINE#         50
  C:1081H         LINE#         51
  C:1085H         LINE#         52
  C:1085H         LINE#         53
  C:1087H         LINE#         54
  C:1089H         LINE#         56
  C:1089H         LINE#         57
  C:108BH         LINE#         58
  C:108BH         LINE#         59
  C:1090H         LINE#         60
  C:1092H         LINE#         61
  C:1096H         LINE#         62
  C:109BH         LINE#         63
  C:109FH         LINE#         64
  C:10A1H         LINE#         65
  -------         ENDPROC       _I2CSENDBYTE
  -------         PROC          I2CRECEIVEBYTE
  -------         DO            
  D:0005H         SYMBOL        da
  D:0004H         SYMBOL        i
  -------         ENDDO         
  C:119FH         LINE#         68
  C:119FH         LINE#         69
  C:119FH         LINE#         72
  C:11A1H         LINE#         73
  C:11A1H         LINE#         74
  C:11A1H         LINE#         75
  C:11A4H         LINE#         76
  C:11A8H         LINE#         77
  C:11ABH         LINE#         78
BL51 BANKED LINKER/LOCATER V6.22.4.0                                                  04/07/2024  20:31:46  PAGE 7


  C:11AEH         LINE#         79
  C:11B0H         LINE#         80
  C:11B5H         LINE#         81
  C:11B9H         LINE#         82
  C:11BBH         LINE#         83
  -------         ENDPROC       I2CRECEIVEBYTE
  C:11BCH         SYMBOL        L?0026
  -------         PROC          L?0025
  -------         ENDPROC       L?0025
  C:11BCH         SYMBOL        L?0026
  -------         PROC          I2CWAITACK
  -------         DO            
  D:0005H         SYMBOL        ackbit
  -------         ENDDO         
  C:11C7H         LINE#         86
  C:11C7H         LINE#         87
  C:11C7H         LINE#         90
  C:11C7H         LINE#         91
  C:11CAH         LINE#         92
  C:11CFH         LINE#         93
  C:11D1H         LINE#         94
  C:11D6H         LINE#         96
  C:11D8H         LINE#         97
  -------         ENDPROC       I2CWAITACK
  -------         PROC          _I2CSENDACK
  D:0007H         SYMBOL        ackbit
  C:0003H         LINE#         100
  C:0003H         LINE#         101
  C:0003H         LINE#         102
  C:0005H         LINE#         103
  C:000AH         LINE#         104
  C:000FH         LINE#         105
  C:000FH         LINE#         106
  C:0012H         LINE#         107
  C:0014H         LINE#         108
  C:0016H         LINE#         109
  -------         ENDPROC       _I2CSENDACK
  -------         PROC          _INIT_ADC
  D:0003H         SYMBOL        add
  C:1309H         LINE#         113
  C:130BH         LINE#         114
  C:130BH         LINE#         115
  C:130EH         LINE#         116
  C:1310H         LINE#         117
  C:1310H         LINE#         118
  C:1310H         LINE#         119
  C:1313H         LINE#         120
  -------         ENDPROC       _INIT_ADC
  -------         PROC          READ_ADC
  -------         DO            
  D:0005H         SYMBOL        ad_dat
  -------         ENDDO         
  C:1323H         LINE#         123
  C:1323H         LINE#         124
  C:1323H         LINE#         127
  C:1326H         LINE#         128
  C:1328H         LINE#         129
BL51 BANKED LINKER/LOCATER V6.22.4.0                                                  04/07/2024  20:31:46  PAGE 8


  C:1328H         LINE#         130
  C:1328H         LINE#         131
  C:1328H         LINE#         132
  C:132BH         LINE#         134
  C:132DH         LINE#         135
  -------         ENDPROC       READ_ADC
  -------         PROC          _WRITE_DAC
  D:0003H         SYMBOL        dat
  C:1273H         LINE#         137
  C:1275H         LINE#         138
  C:1275H         LINE#         139
  C:1278H         LINE#         140
  C:127DH         LINE#         141
  C:1280H         LINE#         142
  C:1282H         LINE#         143
  C:1282H         LINE#         144
  C:1282H         LINE#         145
  C:1285H         LINE#         146
  -------         ENDPROC       _WRITE_DAC
  -------         PROC          _WRITE_E2PROM
  D:0002H         SYMBOL        add
  D:0003H         SYMBOL        dat
  C:125CH         LINE#         149
  C:1260H         LINE#         150
  C:1260H         LINE#         151
  C:1263H         LINE#         152
  C:1268H         LINE#         153
  C:126BH         LINE#         154
  C:126DH         LINE#         155
  C:126DH         LINE#         156
  C:126DH         LINE#         157
  C:1270H         LINE#         158
  -------         ENDPROC       _WRITE_E2PROM
  -------         PROC          _READ_E2PROM
  D:0003H         SYMBOL        add
  -------         DO            
  D:0005H         SYMBOL        dat
  -------         ENDDO         
  C:1288H         LINE#         161
  C:128AH         LINE#         162
  C:128AH         LINE#         164
  C:128DH         LINE#         165
  C:128FH         LINE#         166
  C:128FH         LINE#         167
  C:128FH         LINE#         168
  C:1292H         LINE#         170
  C:1295H         LINE#         171
  C:1297H         LINE#         172
  C:1297H         LINE#         173
  C:1297H         LINE#         174
  C:1297H         LINE#         175
  C:129AH         LINE#         177
  C:129CH         LINE#         178
  -------         ENDPROC       _READ_E2PROM
  -------         ENDMOD        IIC

  -------         MODULE        KEY
BL51 BANKED LINKER/LOCATER V6.22.4.0                                                  04/07/2024  20:31:46  PAGE 9


  C:0000H         SYMBOL        _ICE_DUMMY_
  D:0080H         PUBLIC        P0
  D:0090H         PUBLIC        P1
  D:00A0H         PUBLIC        P2
  D:00B0H         PUBLIC        P3
  D:00C0H         PUBLIC        P4
  D:00C8H         PUBLIC        P5
  D:00E8H         PUBLIC        P6
  D:00F8H         PUBLIC        P7
  D:00A8H         PUBLIC        IE
  D:00B8H         PUBLIC        IP
  D:00D8H         PUBLIC        CCON
  D:0098H         PUBLIC        SCON
  D:0088H         PUBLIC        TCON
  B:00B0H.2       PUBLIC        P32
  B:00C0H.2       PUBLIC        P42
  B:00B0H.3       PUBLIC        P33
  B:00B0H.4       PUBLIC        P34
  B:00C0H.4       PUBLIC        P44
  B:00B0H.5       PUBLIC        P35
  D:0016H         PUBLIC        key_code
  C:0EF5H         PUBLIC        key_proc
  C:101AH         PUBLIC        getkey22
  D:00D0H         PUBLIC        PSW
  -------         PROC          GETKEY22
  -------         DO            
  D:0007H         SYMBOL        tmp
  -------         ENDDO         
  C:101AH         LINE#         4
  C:101AH         LINE#         5
  C:101AH         LINE#         6
  C:101CH         LINE#         7
  C:1020H         LINE#         8
  C:1028H         LINE#         9
  C:102DH         LINE#         10
  C:1032H         LINE#         12
  C:1036H         LINE#         13
  C:103EH         LINE#         14
  C:1043H         LINE#         15
  C:1048H         LINE#         17
  C:1048H         LINE#         18
  -------         ENDPROC       GETKEY22
  -------         PROC          KEY_PROC
  -------         DO            
  D:0015H         SYMBOL        k_state
  D:0007H         SYMBOL        k_tmp
  -------         ENDDO         
  C:0EF5H         LINE#         20
  C:0EF5H         LINE#         21
  C:0EF5H         LINE#         23
  C:0EF7H         LINE#         25
  C:0EFAH         LINE#         28
  C:0F09H         LINE#         29
  C:0F09H         LINE#         30
  C:0F09H         LINE#         31
  C:0F0FH         LINE#         32
  C:0F10H         LINE#         33
BL51 BANKED LINKER/LOCATER V6.22.4.0                                                  04/07/2024  20:31:46  PAGE 10


  C:0F10H         LINE#         34
  C:0F13H         LINE#         35
  C:0F13H         LINE#         36
  C:0F15H         LINE#         37
  C:0F18H         LINE#         38
  C:0F18H         LINE#         39
  C:0F1BH         LINE#         40
  C:0F1FH         LINE#         41
  C:0F20H         LINE#         42
  C:0F23H         LINE#         43
  C:0F24H         LINE#         44
  C:0F24H         LINE#         45
  C:0F29H         LINE#         46
  C:0F2AH         LINE#         48
  C:0F2AH         LINE#         49
  C:0F2DH         LINE#         50
  C:0F2DH         LINE#         51
  C:0F30H         LINE#         52
  C:0F32H         LINE#         53
  C:0F32H         LINE#         54
  C:0F32H         LINE#         55
  C:0F32H         LINE#         56
  -------         ENDPROC       KEY_PROC
  -------         ENDMOD        KEY

  -------         MODULE        MAIN
  C:0000H         SYMBOL        _ICE_DUMMY_
  B:0020H.2       PUBLIC        L3
  B:0020H.3       PUBLIC        L4
  D:0080H         PUBLIC        P0
  B:0020H.4       PUBLIC        L5
  D:0090H         PUBLIC        P1
  B:0020H.5       PUBLIC        L6
  D:00A0H         PUBLIC        P2
  B:0020H.6       PUBLIC        L7
  D:00B0H         PUBLIC        P3
  B:0020H.7       PUBLIC        L8
  D:00C0H         PUBLIC        P4
  D:00C8H         PUBLIC        P5
  B:00A8H.7       PUBLIC        EA
  D:00E8H         PUBLIC        P6
  B:0023H.0       PUBLIC        f_jdq
  D:00F8H         PUBLIC        P7
  C:1338H         PUBLIC        Delay5ms
  D:00A8H         PUBLIC        IE
  C:0DB9H         PUBLIC        rtc_mainloop
  C:0BB1H         PUBLIC        key_mainloop
  D:00B8H         PUBLIC        IP
  D:00D8H         PUBLIC        CCON
  C:1341H         PUBLIC        main
  D:0098H         PUBLIC        SCON
  D:0088H         PUBLIC        TCON
  C:0D54H         PUBLIC        mode_proc
  C:0EAFH         PUBLIC        main_init
  X:0000H         PUBLIC        cj
  D:0020H         PUBLIC        led_dat
  C:113DH         PUBLIC        temper_mainloop
BL51 BANKED LINKER/LOCATER V6.22.4.0                                                  04/07/2024  20:31:46  PAGE 11


  D:0011H         PUBLIC        run_state
  C:0CD8H         PUBLIC        state_mainloop
  D:00D0H         PUBLIC        PSW
  C:1049H         PUBLIC        led_mainloop
  B:0020H.0       PUBLIC        L1
  B:0020H.1       PUBLIC        L2
  -------         PROC          MAIN
  C:1341H         LINE#         36
  C:1341H         LINE#         37
  C:1341H         LINE#         38
  C:1344H         LINE#         39
  C:1346H         LINE#         40
  C:1346H         LINE#         41
  C:1346H         LINE#         47
  -------         ENDPROC       MAIN
  -------         PROC          MAIN_INIT
  C:0EAFH         LINE#         50
  C:0EAFH         LINE#         51
  C:0EAFH         LINE#         52
  C:0EB9H         LINE#         53
  C:0EBCH         LINE#         54
  C:0EBFH         LINE#         55
  C:0EC2H         LINE#         56
  C:0ECBH         LINE#         58
  C:0ECEH         LINE#         59
  C:0ED8H         LINE#         60
  C:0EDEH         LINE#         61
  C:0EE0H         LINE#         62
  C:0EE3H         LINE#         63
  C:0EE7H         LINE#         64
  C:0EEBH         LINE#         65
  C:0EEFH         LINE#         67
  C:0EF2H         LINE#         68
  -------         ENDPROC       MAIN_INIT
  -------         PROC          STATE_MAINLOOP
  C:0CD8H         LINE#         71
  C:0CD8H         LINE#         72
  C:0CD8H         LINE#         73
  C:0CDBH         LINE#         74
  C:0CDDH         LINE#         76
  C:0CEEH         LINE#         77
  C:0CEEH         LINE#         78
  C:0CEEH         LINE#         79
  C:0D0CH         LINE#         80
  C:0D0EH         LINE#         81
  C:0D0EH         LINE#         82
  C:0D21H         LINE#         83
  C:0D23H         LINE#         84
  C:0D23H         LINE#         85
  C:0D36H         LINE#         86
  C:0D38H         LINE#         87
  C:0D38H         LINE#         88
  C:0D50H         LINE#         89
  C:0D50H         LINE#         90
  C:0D50H         LINE#         91
  C:0D53H         LINE#         92
  -------         ENDPROC       STATE_MAINLOOP
BL51 BANKED LINKER/LOCATER V6.22.4.0                                                  04/07/2024  20:31:46  PAGE 12


  -------         PROC          KEY_MAINLOOP
  -------         DO            
  D:001AH         SYMBOL        _i
  -------         ENDDO         
  C:0BB1H         LINE#         94
  C:0BB1H         LINE#         95
  C:0BB1H         LINE#         96
  C:0BB4H         LINE#         97
  C:0BBAH         LINE#         98
  C:0BBCH         LINE#         100
  C:0BBFH         LINE#         101
  C:0BC6H         LINE#         103
  C:0BD9H         LINE#         104
  C:0BD9H         LINE#         105
  C:0BD9H         LINE#         106
  C:0BE7H         LINE#         107
  C:0BE7H         LINE#         108
  C:0BE9H         LINE#         109
  C:0BEEH         LINE#         110
  C:0BF1H         LINE#         111
  C:0BF9H         LINE#         112
  C:0BFBH         LINE#         113
  C:0BFBH         LINE#         114
  C:0BFBH         LINE#         116
  C:0BFBH         LINE#         117
  C:0C01H         LINE#         118
  C:0C08H         LINE#         119
  C:0C0AH         LINE#         121
  C:0C0AH         LINE#         122
  C:0C10H         LINE#         123
  C:0C10H         LINE#         124
  C:0C20H         LINE#         125
  C:0C20H         LINE#         126
  C:0C20H         LINE#         128
  C:0C20H         LINE#         129
  C:0C2AH         LINE#         130
  C:0C2AH         LINE#         131
  C:0C3AH         LINE#         132
  C:0C3FH         LINE#         133
  C:0C3FH         LINE#         134
  C:0C3FH         LINE#         136
  C:0C3FH         LINE#         137
  C:0C45H         LINE#         138
  C:0C45H         LINE#         139
  C:0C48H         LINE#         140
  C:0C48H         LINE#         141
  C:0C48H         LINE#         142
  C:0C48H         LINE#         143
  C:0C4BH         LINE#         144
  -------         ENDPROC       KEY_MAINLOOP
  -------         PROC          LED_MAINLOOP
  -------         DO            
  D:000EH         SYMBOL        t
  -------         ENDDO         
  C:1049H         LINE#         146
  C:1049H         LINE#         147
  C:1049H         LINE#         149
BL51 BANKED LINKER/LOCATER V6.22.4.0                                                  04/07/2024  20:31:46  PAGE 13


  C:104CH         LINE#         150
  C:104EH         LINE#         152
  C:105AH         LINE#         153
  C:105DH         LINE#         154
  C:1068H         LINE#         156
  C:106BH         LINE#         158
  C:1070H         LINE#         159
  C:1075H         LINE#         160
  -------         ENDPROC       LED_MAINLOOP
  -------         PROC          MODE_PROC
  -------         DO            
  D:000FH         SYMBOL        t
  -------         ENDDO         
  C:0D54H         LINE#         162
  C:0D54H         LINE#         163
  C:0D54H         LINE#         165
  C:0D5EH         LINE#         166
  C:0D5EH         LINE#         167
  C:0D5EH         LINE#         168
  C:0D60H         LINE#         169
  C:0D80H         LINE#         170
  C:0D80H         LINE#         171
  C:0D85H         LINE#         172
  C:0D87H         LINE#         177
  C:0D87H         LINE#         178
  C:0D89H         LINE#         179
  C:0D93H         LINE#         180
  C:0D93H         LINE#         181
  C:0D9AH         LINE#         182
  C:0D9AH         LINE#         183
  C:0D9DH         LINE#         184
  C:0D9DH         LINE#         185
  C:0DA6H         LINE#         186
  C:0DA6H         LINE#         187
  C:0DB0H         LINE#         188
  C:0DB0H         LINE#         189
  C:0DB0H         LINE#         190
  C:0DB0H         LINE#         191
  C:0DB0H         LINE#         192
  C:0DB3H         LINE#         193
  C:0DB6H         LINE#         194
  C:0DB8H         LINE#         195
  -------         ENDPROC       MODE_PROC
  -------         PROC          TEMPER_MAINLOOP
  -------         DO            
  D:0006H         SYMBOL        tmp
  -------         ENDDO         
  C:113DH         LINE#         197
  C:113DH         LINE#         198
  C:113DH         LINE#         200
  C:1140H         LINE#         201
  C:1142H         LINE#         203
  C:1145H         LINE#         204
  C:115DH         LINE#         205
  C:1160H         LINE#         206
  -------         ENDPROC       TEMPER_MAINLOOP
  -------         PROC          RTC_MAINLOOP
BL51 BANKED LINKER/LOCATER V6.22.4.0                                                  04/07/2024  20:31:46  PAGE 14


  -------         DO            
  D:0017H         SYMBOL        h
  D:0018H         SYMBOL        m
  D:0004H         SYMBOL        s
  D:0010H         SYMBOL        s_old
  -------         ENDDO         
  C:0DB9H         LINE#         208
  C:0DB9H         LINE#         209
  C:0DB9H         LINE#         213
  C:0DBCH         LINE#         214
  C:0DBEH         LINE#         215
  C:0DC5H         LINE#         216
  C:0DCCH         LINE#         217
  C:0DD3H         LINE#         218
  C:0DD8H         LINE#         219
  C:0DDAH         LINE#         221
  C:0DEDH         LINE#         222
  C:0DFEH         LINE#         223
  C:0E0DH         LINE#         224
  -------         ENDPROC       RTC_MAINLOOP
  -------         PROC          DELAY5MS
  -------         DO            
  D:0007H         SYMBOL        i
  D:0006H         SYMBOL        j
  -------         ENDDO         
  C:1338H         LINE#         226
  C:1338H         LINE#         227
  C:1338H         LINE#         230
  C:133AH         LINE#         231
  C:133CH         LINE#         233
  C:133CH         LINE#         234
  C:133EH         LINE#         235
  C:1340H         LINE#         236
  -------         ENDPROC       DELAY5MS
  -------         ENDMOD        MAIN

  -------         MODULE        ONEWIRE
  C:0000H         SYMBOL        _ICE_DUMMY_
  D:0080H         PUBLIC        P0
  D:0090H         PUBLIC        P1
  D:00A0H         PUBLIC        P2
  D:00B0H         PUBLIC        P3
  D:00C0H         PUBLIC        P4
  C:1229H         PUBLIC        Read_DS18B20
  D:00C8H         PUBLIC        P5
  D:00E8H         PUBLIC        P6
  D:00F8H         PUBLIC        P7
  D:00A8H         PUBLIC        IE
  C:1213H         PUBLIC        _Delay_OneWire
  C:1181H         PUBLIC        _Write_DS18B20
  B:0090H.4       PUBLIC        DQ
  C:1316H         PUBLIC        start_ds18b20
  D:00B8H         PUBLIC        IP
  C:10A2H         PUBLIC        init_ds18b20
  D:00D8H         PUBLIC        CCON
  C:1161H         PUBLIC        read_tem16
  D:0098H         PUBLIC        SCON
BL51 BANKED LINKER/LOCATER V6.22.4.0                                                  04/07/2024  20:31:46  PAGE 15


  D:0088H         PUBLIC        TCON
  D:00D0H         PUBLIC        PSW
  C:120FH         SYMBOL        L?0021
  -------         PROC          L?0020
  -------         ENDPROC       L?0020
  C:120FH         SYMBOL        L?0021
  -------         PROC          _DELAY_ONEWIRE
  D:0006H         SYMBOL        t
  -------         DO            
  D:0005H         SYMBOL        i
  -------         ENDDO         
  C:1213H         LINE#         9
  C:1213H         LINE#         10
  C:1213H         LINE#         12
  C:121DH         LINE#         13
  C:1228H         LINE#         14
  C:1228H         LINE#         15
  -------         ENDPROC       _DELAY_ONEWIRE
  -------         PROC          _WRITE_DS18B20
  D:0001H         SYMBOL        dat
  -------         DO            
  D:0003H         SYMBOL        i
  -------         ENDDO         
  C:1181H         LINE#         18
  C:1183H         LINE#         19
  C:1183H         LINE#         21
  C:1185H         LINE#         22
  C:1185H         LINE#         23
  C:1187H         LINE#         24
  C:118BH         LINE#         25
  C:118EH         LINE#         26
  C:1190H         LINE#         27
  C:1194H         LINE#         28
  C:1198H         LINE#         29
  -------         ENDPROC       _WRITE_DS18B20
  -------         PROC          READ_DS18B20
  -------         DO            
  D:0003H         SYMBOL        i
  D:0004H         SYMBOL        dat
  -------         ENDDO         
  C:1229H         LINE#         33
  C:1229H         LINE#         34
  C:1229H         LINE#         38
  C:122BH         LINE#         39
  C:122BH         LINE#         40
  C:122DH         LINE#         41
  C:1231H         LINE#         42
  C:1233H         LINE#         43
  C:1236H         LINE#         44
  C:1236H         LINE#         45
  C:1239H         LINE#         46
  C:1239H         LINE#         47
  C:123CH         LINE#         48
  C:1240H         LINE#         49
  C:1242H         LINE#         50
  -------         ENDPROC       READ_DS18B20
  -------         PROC          INIT_DS18B20
BL51 BANKED LINKER/LOCATER V6.22.4.0                                                  04/07/2024  20:31:46  PAGE 16


  -------         DO            
  B:0023H.1       SYMBOL        initflag
  -------         ENDDO         
  C:10A2H         LINE#         53
  C:10A2H         LINE#         54
  C:10A2H         LINE#         55
  C:10A4H         LINE#         57
  C:10A6H         LINE#         58
  C:10ADH         LINE#         59
  C:10AFH         LINE#         60
  C:10B6H         LINE#         61
  C:10B8H         LINE#         62
  C:10BFH         LINE#         63
  C:10C3H         LINE#         64
  C:10C6H         LINE#         66
  C:10C8H         LINE#         67
  -------         ENDPROC       INIT_DS18B20
  -------         PROC          START_DS18B20
  C:1316H         LINE#         70
  C:1316H         LINE#         71
  C:1316H         LINE#         72
  C:1319H         LINE#         73
  C:131EH         LINE#         74
  -------         ENDPROC       START_DS18B20
  -------         PROC          READ_TEM16
  -------         DO            
  D:0001H         SYMBOL        L
  D:0007H         SYMBOL        H
  D:0006H         SYMBOL        t16
  -------         ENDDO         
  C:1161H         LINE#         78
  C:1161H         LINE#         79
  C:1161H         LINE#         83
  C:1164H         LINE#         84
  C:1169H         LINE#         85
  C:116EH         LINE#         87
  C:1173H         LINE#         88
  C:1176H         LINE#         90
  C:1180H         LINE#         92
  C:1180H         LINE#         93
  -------         ENDPROC       READ_TEM16
  -------         ENDMOD        ONEWIRE

  -------         MODULE        SMG
  C:0000H         SYMBOL        _ICE_DUMMY_
  D:0080H         PUBLIC        P0
  D:0090H         PUBLIC        P1
  D:00A0H         PUBLIC        P2
  D:00B0H         PUBLIC        P3
  D:00C0H         PUBLIC        P4
  D:00C8H         PUBLIC        P5
  D:00E8H         PUBLIC        P6
  D:00F8H         PUBLIC        P7
  D:00A8H         PUBLIC        IE
  D:00B8H         PUBLIC        IP
  D:00D8H         PUBLIC        CCON
  D:0098H         PUBLIC        SCON
BL51 BANKED LINKER/LOCATER V6.22.4.0                                                  04/07/2024  20:31:46  PAGE 17


  D:0025H         PUBLIC        dis_blink
  D:0088H         PUBLIC        TCON
  C:0F71H         PUBLIC        disp_scan
  C:1243H         PUBLIC        seg
  C:0AA7H         PUBLIC        disp_tran
  D:002DH         PUBLIC        dis_buf
  D:00D0H         PUBLIC        PSW
  D:0035H         PUBLIC        dis_str
  -------         PROC          DISP_SCAN
  -------         DO            
  D:0024H         SYMBOL        i
  -------         ENDDO         
  C:0F71H         LINE#         40
  C:0F71H         LINE#         41
  C:0F71H         LINE#         44
  C:0F74H         LINE#         45
  C:0F79H         LINE#         47
  C:0F89H         LINE#         48
  C:0F8EH         LINE#         50
  C:0F9DH         LINE#         51
  C:0FA2H         LINE#         53
  C:0FACH         LINE#         54
  -------         ENDPROC       DISP_SCAN
  -------         PROC          DISP_TRAN
  -------         DO            
  D:0012H         SYMBOL        i
  D:0013H         SYMBOL        j
  D:0014H         SYMBOL        temp
  -------         ENDDO         
  C:0AA7H         LINE#         56
  C:0AA7H         LINE#         57
  C:0AA7H         LINE#         58
  C:0AAAH         LINE#         59
  C:0AACH         LINE#         61
  C:0AB8H         LINE#         62
  C:0AB8H         LINE#         63
  C:0B10H         LINE#         64
  C:0B10H         LINE#         65
  C:0B15H         LINE#         66
  C:0B1AH         LINE#         67
  C:0B1FH         LINE#         68
  C:0B24H         LINE#         69
  C:0B29H         LINE#         70
  C:0B2EH         LINE#         71
  C:0B33H         LINE#         72
  C:0B38H         LINE#         73
  C:0B3DH         LINE#         74
  C:0B42H         LINE#         75
  C:0B47H         LINE#         76
  C:0B4CH         LINE#         77
  C:0B51H         LINE#         78
  C:0B56H         LINE#         79
  C:0B5BH         LINE#         80
  C:0B60H         LINE#         81
  C:0B65H         LINE#         82
  C:0B6AH         LINE#         83
  C:0B6FH         LINE#         84
BL51 BANKED LINKER/LOCATER V6.22.4.0                                                  04/07/2024  20:31:46  PAGE 18


  C:0B74H         LINE#         85
  C:0B79H         LINE#         86
  C:0B7EH         LINE#         87
  C:0B83H         LINE#         88
  C:0B88H         LINE#         89
  C:0B91H         LINE#         90
  C:0B94H         LINE#         91
  C:0B94H         LINE#         92
  C:0B9DH         LINE#         93
  C:0B9DH         LINE#         94
  C:0BA0H         LINE#         95
  C:0BA2H         LINE#         96
  C:0BA2H         LINE#         97
  C:0BA9H         LINE#         98
  C:0BB0H         LINE#         99
  -------         ENDPROC       DISP_TRAN
  -------         ENDMOD        SMG

  -------         MODULE        TIME
  C:0000H         SYMBOL        _ICE_DUMMY_
  C:0E0EH         PUBLIC        timflag_proc
  D:0080H         PUBLIC        P0
  D:0090H         PUBLIC        P1
  D:00A0H         PUBLIC        P2
  D:00B0H         PUBLIC        P3
  D:00C0H         PUBLIC        P4
  D:00C8H         PUBLIC        P5
  D:00E8H         PUBLIC        P6
  D:00F8H         PUBLIC        P7
  D:00A8H         PUBLIC        IE
  D:00B8H         PUBLIC        IP
  C:0F33H         PUBLIC        PIT1
  D:00D8H         PUBLIC        CCON
  C:12B1H         PUBLIC        Timer1_Init
  D:0098H         PUBLIC        SCON
  B:0022H.1       PUBLIC        f_20ms_key
  D:0089H         PUBLIC        TMOD
  D:0088H         PUBLIC        TCON
  B:0022H.2       PUBLIC        f_100ms_state
  D:008EH         PUBLIC        AUXR
  B:0022H.3       PUBLIC        f_100ms_adc
  B:00A8H.3       PUBLIC        ET1
  B:0088H.7       PUBLIC        TF1
  D:008DH         PUBLIC        TH1
  B:0022H.4       PUBLIC        f_100ms_led
  D:008BH         PUBLIC        TL1
  B:0088H.6       PUBLIC        TR1
  B:0022H.5       PUBLIC        f_800ms_temp
  B:0022H.6       PUBLIC        f_100ms_rtc
  B:0022H.7       PUBLIC        f_1s
  D:00D0H         PUBLIC        PSW
  -------         PROC          PIT1
  C:0F33H         LINE#         11
  C:0F50H         LINE#         13
  C:0F53H         LINE#         14
  C:0F56H         LINE#         15
  -------         ENDPROC       PIT1
BL51 BANKED LINKER/LOCATER V6.22.4.0                                                  04/07/2024  20:31:46  PAGE 19


  -------         PROC          TIMER1_INIT
  C:12B1H         LINE#         17
  C:12B1H         LINE#         18
  C:12B1H         LINE#         19
  C:12B4H         LINE#         20
  C:12B7H         LINE#         21
  C:12BAH         LINE#         22
  C:12BDH         LINE#         23
  C:12BFH         LINE#         24
  C:12C1H         LINE#         25
  C:12C3H         LINE#         26
  -------         ENDPROC       TIMER1_INIT
  -------         PROC          TIMFLAG_PROC
  -------         DO            
  D:0008H         SYMBOL        cnt_20ms
  D:0009H         SYMBOL        cnt_100ms
  D:000AH         SYMBOL        cnt_800ms
  D:000CH         SYMBOL        cnt_1s
  -------         ENDDO         
  C:0E0EH         LINE#         28
  C:0E0EH         LINE#         29
  C:0E0EH         LINE#         35
  C:0E17H         LINE#         36
  C:0E17H         LINE#         37
  C:0E1AH         LINE#         38
  C:0E1CH         LINE#         39
  C:0E1CH         LINE#         40
  C:0E25H         LINE#         41
  C:0E25H         LINE#         42
  C:0E28H         LINE#         43
  C:0E30H         LINE#         44
  C:0E30H         LINE#         45
  C:0E41H         LINE#         46
  C:0E41H         LINE#         47
  C:0E48H         LINE#         48
  C:0E48H         LINE#         49
  C:0E59H         LINE#         50
  C:0E59H         LINE#         51
  C:0E5EH         LINE#         52
  C:0E60H         LINE#         53
  C:0E60H         LINE#         54
  -------         ENDPROC       TIMFLAG_PROC
  -------         ENDMOD        TIME

  -------         MODULE        DS1302
  C:0000H         SYMBOL        _ICE_DUMMY_
  D:0080H         PUBLIC        P0
  D:0090H         PUBLIC        P1
  D:00A0H         PUBLIC        P2
  D:00B0H         PUBLIC        P3
  D:00C0H         PUBLIC        P4
  D:00C8H         PUBLIC        P5
  D:00E8H         PUBLIC        P6
  D:00F8H         PUBLIC        P7
  D:00A8H         PUBLIC        IE
  D:00B8H         PUBLIC        IP
  D:00D8H         PUBLIC        CCON
BL51 BANKED LINKER/LOCATER V6.22.4.0                                                  04/07/2024  20:31:46  PAGE 20


  D:0098H         PUBLIC        SCON
  D:0088H         PUBLIC        TCON
  C:0FADH         PUBLIC        ds1302_init
  C:0FE6H         PUBLIC        _Read_Ds1302_Byte
  C:10C9H         PUBLIC        _ds1302_run
  B:00A0H.3       PUBLIC        SDA
  B:0090H.7       PUBLIC        SCK
  C:129DH         PUBLIC        _Write_Ds1302_Byte
  C:12C4H         PUBLIC        _Write_Ds1302
  B:0090H.3       PUBLIC        RST
  D:00D0H         PUBLIC        PSW
  -------         PROC          _WRITE_DS1302
  D:0007H         SYMBOL        temp
  -------         DO            
  D:0006H         SYMBOL        i
  -------         ENDDO         
  C:12C4H         LINE#         9
  C:12C4H         LINE#         10
  C:12C4H         LINE#         12
  C:12C6H         LINE#         13
  C:12C6H         LINE#         14
  C:12C8H         LINE#         15
  C:12CCH         LINE#         16
  C:12D0H         LINE#         17
  C:12D2H         LINE#         18
  C:12D6H         LINE#         19
  -------         ENDPROC       _WRITE_DS1302
  -------         PROC          _WRITE_DS1302_BYTE
  D:0007H         SYMBOL        address
  D:0005H         SYMBOL        dat
  C:129DH         LINE#         22
  C:129DH         LINE#         23
  C:129DH         LINE#         24
  C:12A0H         LINE#         25
  C:12A3H         LINE#         26
  C:12A6H         LINE#         27
  C:12A9H         LINE#         28
  C:12AEH         LINE#         29
  C:12B0H         LINE#         30
  -------         ENDPROC       _WRITE_DS1302_BYTE
  -------         PROC          _READ_DS1302_BYTE
  D:0007H         SYMBOL        address
  -------         DO            
  D:0007H         SYMBOL        i
  D:0005H         SYMBOL        temp
  -------         ENDDO         
  C:0FE6H         LINE#         33
  C:0FE6H         LINE#         34
  C:0FE6H         LINE#         35
  C:0FE8H         LINE#         36
  C:0FEBH         LINE#         37
  C:0FEEH         LINE#         38
  C:0FF1H         LINE#         39
  C:0FF4H         LINE#         40
  C:0FF6H         LINE#         41
  C:0FF6H         LINE#         42
  C:0FF8H         LINE#         43
BL51 BANKED LINKER/LOCATER V6.22.4.0                                                  04/07/2024  20:31:46  PAGE 21


  C:0FFCH         LINE#         44
  C:0FFFH         LINE#         45
  C:1002H         LINE#         46
  C:1004H         LINE#         47
  C:1008H         LINE#         48
  C:100BH         LINE#         49
  C:100EH         LINE#         50
  C:1011H         LINE#         51
  C:1014H         LINE#         52
  C:1017H         LINE#         53
  C:1019H         LINE#         54
  -------         ENDPROC       _READ_DS1302_BYTE
  -------         PROC          DS1302_INIT
  C:0FADH         LINE#         56
  C:0FADH         LINE#         57
  C:0FADH         LINE#         58
  C:0FB4H         LINE#         59
  C:0FBBH         LINE#         60
  C:0FC2H         LINE#         61
  C:0FC7H         LINE#         62
  C:0FCEH         LINE#         63
  C:0FD5H         LINE#         64
  C:0FDAH         LINE#         65
  C:0FDFH         LINE#         66
  -------         ENDPROC       DS1302_INIT
  -------         PROC          _DS1302_RUN
  D:0004H         SYMBOL        h
  D:0002H         SYMBOL        m
  D:0003H         SYMBOL        s
  C:10C9H         LINE#         68
  C:10CDH         LINE#         69
  C:10CDH         LINE#         70
  C:10D4H         LINE#         71
  C:10DBH         LINE#         72
  C:10E2H         LINE#         73
  C:10E9H         LINE#         74
  -------         ENDPROC       _DS1302_RUN
  -------         ENDMOD        DS1302

  -------         MODULE        ?C?FPMUL
  C:001EH         PUBLIC        ?C?FPMUL
  -------         ENDMOD        ?C?FPMUL

  -------         MODULE        ?C?FPCMP
  C:0126H         PUBLIC        ?C?FPCMP
  C:0124H         PUBLIC        ?C?FPCMP3
  -------         ENDMOD        ?C?FPCMP

  -------         MODULE        ?C?FCAST
  C:01A7H         PUBLIC        ?C?FCASTC
  C:01A2H         PUBLIC        ?C?FCASTI
  C:019DH         PUBLIC        ?C?FCASTL
  -------         ENDMOD        ?C?FCAST

  -------         MODULE        PRINTF
  D:0040H         PUBLIC        ?_PRINTF?BYTE
  D:0040H         PUBLIC        ?_SPRINTF?BYTE
BL51 BANKED LINKER/LOCATER V6.22.4.0                                                  04/07/2024  20:31:46  PAGE 22


  C:069AH         PUBLIC        _PRINTF
  C:0694H         PUBLIC        _SPRINTF
  -------         ENDMOD        PRINTF

  -------         MODULE        ?C?FPROUND
  C:0225H         PUBLIC        ?C?FPROUND
  -------         ENDMOD        ?C?FPROUND

  -------         MODULE        ?C?FPCONVERT
  C:0254H         PUBLIC        ?C?FPCONVERT
  -------         ENDMOD        ?C?FPCONVERT

  -------         MODULE        ?C?FPADD
  C:035EH         PUBLIC        ?C?FPADD
  C:035AH         PUBLIC        ?C?FPSUB
  -------         ENDMOD        ?C?FPADD

  -------         MODULE        ?C?FPDIV
  C:0452H         PUBLIC        ?C?FPDIV
  -------         ENDMOD        ?C?FPDIV

  -------         MODULE        ?C?FTNPWR
  C:051FH         PUBLIC        ?C?FTNPWR
  -------         ENDMOD        ?C?FTNPWR

  -------         MODULE        ?C?CLDPTR
  C:055FH         PUBLIC        ?C?CLDPTR
  -------         ENDMOD        ?C?CLDPTR

  -------         MODULE        ?C?CLDOPTR
  C:0578H         PUBLIC        ?C?CLDOPTR
  -------         ENDMOD        ?C?CLDOPTR

  -------         MODULE        ?C?CSTPTR
  C:05A5H         PUBLIC        ?C?CSTPTR
  -------         ENDMOD        ?C?CSTPTR

  -------         MODULE        ?C?LNEG
  C:05B7H         PUBLIC        ?C?LNEG
  -------         ENDMOD        ?C?LNEG

  -------         MODULE        ?C?LSTXDATA
  C:05C5H         PUBLIC        ?C?LSTXDATA
  -------         ENDMOD        ?C?LSTXDATA

  -------         MODULE        ?C?LSTKXDATA
  C:05D1H         PUBLIC        ?C?LSTKXDATA
  -------         ENDMOD        ?C?LSTKXDATA

  -------         MODULE        ?C?PLDIIDATA
  C:0602H         PUBLIC        ?C?PLDIIDATA
  -------         ENDMOD        ?C?PLDIIDATA

  -------         MODULE        ?C?CCASE
  C:0612H         PUBLIC        ?C?CCASE
  -------         ENDMOD        ?C?CCASE

BL51 BANKED LINKER/LOCATER V6.22.4.0                                                  04/07/2024  20:31:46  PAGE 23


  -------         MODULE        PUTCHAR
  C:10F0H         PUBLIC        _PUTCHAR
  -------         ENDMOD        PUTCHAR

Program Size: data=87.2 xdata=10 code=4936
LINK/LOCATE RUN COMPLETE.  0 WARNING(S),  0 ERROR(S)
